
Controller.elf:     file format elf32-avr

Sections:
Idx Name          Size      VMA       LMA       File off  Algn
  0 .text         00000f0a  00000000  00000000  00000094  2**1
                  CONTENTS, ALLOC, LOAD, READONLY, CODE
  1 .data         00000108  00800060  00000f0a  00000f9e  2**0
                  CONTENTS, ALLOC, LOAD, DATA
  2 .bss          00000017  00800168  00800168  000010a6  2**0
                  ALLOC
  3 .debug_aranges 00000100  00000000  00000000  000010a6  2**0
                  CONTENTS, READONLY, DEBUGGING
  4 .debug_pubnames 00000347  00000000  00000000  000011a6  2**0
                  CONTENTS, READONLY, DEBUGGING
  5 .debug_info   00001f41  00000000  00000000  000014ed  2**0
                  CONTENTS, READONLY, DEBUGGING
  6 .debug_abbrev 00000de6  00000000  00000000  0000342e  2**0
                  CONTENTS, READONLY, DEBUGGING
  7 .debug_line   00001587  00000000  00000000  00004214  2**0
                  CONTENTS, READONLY, DEBUGGING
  8 .debug_frame  00000280  00000000  00000000  0000579c  2**2
                  CONTENTS, READONLY, DEBUGGING
  9 .debug_str    000004c4  00000000  00000000  00005a1c  2**0
                  CONTENTS, READONLY, DEBUGGING
 10 .debug_loc    00000869  00000000  00000000  00005ee0  2**0
                  CONTENTS, READONLY, DEBUGGING
 11 .debug_ranges 00000050  00000000  00000000  00006749  2**0
                  CONTENTS, READONLY, DEBUGGING

Disassembly of section .text:

00000000 <__vectors>:
   0:	0c 94 2a 00 	jmp	0x54	; 0x54 <__ctors_end>
   4:	0c 94 47 00 	jmp	0x8e	; 0x8e <__bad_interrupt>
   8:	0c 94 47 00 	jmp	0x8e	; 0x8e <__bad_interrupt>
   c:	0c 94 47 00 	jmp	0x8e	; 0x8e <__bad_interrupt>
  10:	0c 94 47 00 	jmp	0x8e	; 0x8e <__bad_interrupt>
  14:	0c 94 47 00 	jmp	0x8e	; 0x8e <__bad_interrupt>
  18:	0c 94 47 00 	jmp	0x8e	; 0x8e <__bad_interrupt>
  1c:	0c 94 47 00 	jmp	0x8e	; 0x8e <__bad_interrupt>
  20:	0c 94 a9 03 	jmp	0x752	; 0x752 <__vector_8>
  24:	0c 94 47 00 	jmp	0x8e	; 0x8e <__bad_interrupt>
  28:	0c 94 47 00 	jmp	0x8e	; 0x8e <__bad_interrupt>
  2c:	0c 94 47 00 	jmp	0x8e	; 0x8e <__bad_interrupt>
  30:	0c 94 47 00 	jmp	0x8e	; 0x8e <__bad_interrupt>
  34:	0c 94 47 00 	jmp	0x8e	; 0x8e <__bad_interrupt>
  38:	0c 94 47 00 	jmp	0x8e	; 0x8e <__bad_interrupt>
  3c:	0c 94 47 00 	jmp	0x8e	; 0x8e <__bad_interrupt>
  40:	0c 94 47 00 	jmp	0x8e	; 0x8e <__bad_interrupt>
  44:	0c 94 47 00 	jmp	0x8e	; 0x8e <__bad_interrupt>
  48:	0c 94 47 00 	jmp	0x8e	; 0x8e <__bad_interrupt>
  4c:	0c 94 47 00 	jmp	0x8e	; 0x8e <__bad_interrupt>
  50:	0c 94 47 00 	jmp	0x8e	; 0x8e <__bad_interrupt>

00000054 <__ctors_end>:
  54:	11 24       	eor	r1, r1
  56:	1f be       	out	0x3f, r1	; 63
  58:	cf e5       	ldi	r28, 0x5F	; 95
  5a:	d8 e0       	ldi	r29, 0x08	; 8
  5c:	de bf       	out	0x3e, r29	; 62
  5e:	cd bf       	out	0x3d, r28	; 61

00000060 <__do_clear_bss>:
  60:	11 e0       	ldi	r17, 0x01	; 1
  62:	a8 e6       	ldi	r26, 0x68	; 104
  64:	b1 e0       	ldi	r27, 0x01	; 1
  66:	01 c0       	rjmp	.+2      	; 0x6a <.do_clear_bss_start>

00000068 <.do_clear_bss_loop>:
  68:	1d 92       	st	X+, r1

0000006a <.do_clear_bss_start>:
  6a:	af 37       	cpi	r26, 0x7F	; 127
  6c:	b1 07       	cpc	r27, r17
  6e:	e1 f7       	brne	.-8      	; 0x68 <.do_clear_bss_loop>

00000070 <__do_copy_data>:
  70:	11 e0       	ldi	r17, 0x01	; 1
  72:	a0 e6       	ldi	r26, 0x60	; 96
  74:	b0 e0       	ldi	r27, 0x00	; 0
  76:	ea e0       	ldi	r30, 0x0A	; 10
  78:	ff e0       	ldi	r31, 0x0F	; 15
  7a:	02 c0       	rjmp	.+4      	; 0x80 <.do_copy_data_start>

0000007c <.do_copy_data_loop>:
  7c:	05 90       	lpm	r0, Z+
  7e:	0d 92       	st	X+, r0

00000080 <.do_copy_data_start>:
  80:	a8 36       	cpi	r26, 0x68	; 104
  82:	b1 07       	cpc	r27, r17
  84:	d9 f7       	brne	.-10     	; 0x7c <.do_copy_data_loop>
  86:	0e 94 a7 02 	call	0x54e	; 0x54e <main>
  8a:	0c 94 83 07 	jmp	0xf06	; 0xf06 <_exit>

0000008e <__bad_interrupt>:
  8e:	0c 94 00 00 	jmp	0	; 0x0 <__vectors>

00000092 <setupMIDI>:


/***** Setup Methods *****/

void setupMIDI(unsigned int baudrate){
	UBRRH = (unsigned char) (baudrate >> 8);
  92:	90 bd       	out	0x20, r25	; 32
	UBRRL = (unsigned char) baudrate;
  94:	89 b9       	out	0x09, r24	; 9
	UCSRB = (1 << TXEN) | (1 << RXEN);
  96:	88 e1       	ldi	r24, 0x18	; 24
  98:	8a b9       	out	0x0a, r24	; 10
	UCSRC = (1 << URSEL )|(0 << USBS) | (3 << UCSZ0); //only use 8 bit words
  9a:	86 e8       	ldi	r24, 0x86	; 134
  9c:	80 bd       	out	0x20, r24	; 32
}
  9e:	08 95       	ret

000000a0 <setupPins>:
void setupPins(){
	DDRB = 0xFF;  //Set outp1ts
  a0:	8f ef       	ldi	r24, 0xFF	; 255
  a2:	87 bb       	out	0x17, r24	; 23
	DDRA = 0x00;  //Set inputs
  a4:	1a ba       	out	0x1a, r1	; 26
	PORTB = 0x00; //Turns all leds off
  a6:	18 ba       	out	0x18, r1	; 24
	PORTA = 0x07; // sets inputs to return 5v on PA0, PA1, PA2
  a8:	87 e0       	ldi	r24, 0x07	; 7
  aa:	8b bb       	out	0x1b, r24	; 27
	DDRD = 0x00;
  ac:	11 ba       	out	0x11, r1	; 17
}
  ae:	08 95       	ret

000000b0 <setupAnalog>:
void setupAnalog(){
	ADMUX = (1 << REFS0) | (1<< MUX0) | (1<< MUX1) | (1<< MUX2); // sets the analog input of the photosensor to 0-5v, sets to look at the 7th analog pin.
  b0:	87 e4       	ldi	r24, 0x47	; 71
  b2:	87 b9       	out	0x07, r24	; 7
	ADCSRA =  (1 << ADEN) | (1<< ADPS2) | (1<< ADPS1) | (1<< ADPS0); // ADEN turns ADC on; ADPS sets prescaler to 128;
  b4:	87 e8       	ldi	r24, 0x87	; 135
  b6:	86 b9       	out	0x06, r24	; 6
}
  b8:	08 95       	ret

000000ba <setupTimer>:
void setupTimer(){
	TCCR1A = 0x00; // enable normal mode interrupts
  ba:	1f bc       	out	0x2f, r1	; 47
	TCCR1B = (1 << CS10) | (1 << CS12); //prescaler 1024
  bc:	85 e0       	ldi	r24, 0x05	; 5
  be:	8e bd       	out	0x2e, r24	; 46
	TIMSK = (1 << OCIE1B);
  c0:	88 e0       	ldi	r24, 0x08	; 8
  c2:	89 bf       	out	0x39, r24	; 57
	sei();
  c4:	78 94       	sei
	//OCR1A = 3906; // 1000ms delay  equation = (500*10^-3/(1/3906.25));
	OCR1B = 1952; // 500ms Delay (note this causes the leds to turn off after button press)
  c6:	80 ea       	ldi	r24, 0xA0	; 160
  c8:	97 e0       	ldi	r25, 0x07	; 7
  ca:	99 bd       	out	0x29, r25	; 41
  cc:	88 bd       	out	0x28, r24	; 40
	TCNT1 = 0;
  ce:	1d bc       	out	0x2d, r1	; 45
  d0:	1c bc       	out	0x2c, r1	; 44

}
  d2:	08 95       	ret

000000d4 <ledOFF>:
}



void ledOFF(){
	PORTB = 0x00;
  d4:	18 ba       	out	0x18, r1	; 24
}
  d6:	08 95       	ret

000000d8 <ReadADC>:

uint16_t ReadADC(){
	//Start a single conversion
	ADCSRA |= (1 << ADSC);
  d8:	36 9a       	sbi	0x06, 6	; 6
	//Wait for conversion to complete
	while(!(ADCSRA & (1<<ADIF)));
  da:	34 9b       	sbis	0x06, 4	; 6
  dc:	fe cf       	rjmp	.-4      	; 0xda <ReadADC+0x2>
	//clear data (conversion is complete)
	ADCSRA |= (1 << ADIF);
  de:	34 9a       	sbi	0x06, 4	; 6
	return(ADC);
  e0:	24 b1       	in	r18, 0x04	; 4
  e2:	35 b1       	in	r19, 0x05	; 5
}
  e4:	c9 01       	movw	r24, r18
  e6:	08 95       	ret

000000e8 <analogLEDTest>:

void analogLEDTest(){
		adc_value = ReadADC();
  e8:	0e 94 6c 00 	call	0xd8	; 0xd8 <ReadADC>
  ec:	9c 01       	movw	r18, r24
  ee:	90 93 79 01 	sts	0x0179, r25
  f2:	80 93 78 01 	sts	0x0178, r24
		if (adc_value > 30){
  f6:	8f 31       	cpi	r24, 0x1F	; 31
  f8:	91 05       	cpc	r25, r1
  fa:	28 f1       	brcs	.+74     	; 0x146 <analogLEDTest+0x5e>
			PORTB = (1 << PORTB0);
  fc:	81 e0       	ldi	r24, 0x01	; 1
  fe:	88 bb       	out	0x18, r24	; 24
		}
		if (adc_value > 60){
 100:	2d 33       	cpi	r18, 0x3D	; 61
 102:	31 05       	cpc	r19, r1
 104:	00 f1       	brcs	.+64     	; 0x146 <analogLEDTest+0x5e>
			PORTB = (1 << PORTB1);
 106:	82 e0       	ldi	r24, 0x02	; 2
 108:	88 bb       	out	0x18, r24	; 24
		}
		if (adc_value > 90){
 10a:	2b 35       	cpi	r18, 0x5B	; 91
 10c:	31 05       	cpc	r19, r1
 10e:	d8 f0       	brcs	.+54     	; 0x146 <analogLEDTest+0x5e>
			PORTB = (1 << PORTB2);
 110:	84 e0       	ldi	r24, 0x04	; 4
 112:	88 bb       	out	0x18, r24	; 24
		}
		if (adc_value > 120){
 114:	29 37       	cpi	r18, 0x79	; 121
 116:	31 05       	cpc	r19, r1
 118:	b0 f0       	brcs	.+44     	; 0x146 <analogLEDTest+0x5e>
			PORTB = (1 << PORTB3);
 11a:	88 e0       	ldi	r24, 0x08	; 8
 11c:	88 bb       	out	0x18, r24	; 24
		}
		if (adc_value > 150){
 11e:	27 39       	cpi	r18, 0x97	; 151
 120:	31 05       	cpc	r19, r1
 122:	88 f0       	brcs	.+34     	; 0x146 <analogLEDTest+0x5e>
			PORTB = (1 << PORTB4);
 124:	80 e1       	ldi	r24, 0x10	; 16
 126:	88 bb       	out	0x18, r24	; 24
		}
		if (adc_value > 180){
 128:	25 3b       	cpi	r18, 0xB5	; 181
 12a:	31 05       	cpc	r19, r1
 12c:	60 f0       	brcs	.+24     	; 0x146 <analogLEDTest+0x5e>
			PORTB = (1 << PORTB5);
 12e:	80 e2       	ldi	r24, 0x20	; 32
 130:	88 bb       	out	0x18, r24	; 24
		}
		if (adc_value > 210){
 132:	23 3d       	cpi	r18, 0xD3	; 211
 134:	31 05       	cpc	r19, r1
 136:	38 f0       	brcs	.+14     	; 0x146 <analogLEDTest+0x5e>
			PORTB = (1 << PORTB6);
 138:	80 e4       	ldi	r24, 0x40	; 64
 13a:	88 bb       	out	0x18, r24	; 24
		}
		if (adc_value > 240){
 13c:	21 3f       	cpi	r18, 0xF1	; 241
 13e:	31 05       	cpc	r19, r1
 140:	10 f0       	brcs	.+4      	; 0x146 <analogLEDTest+0x5e>
			PORTB = (1 << PORTB7);
 142:	80 e8       	ldi	r24, 0x80	; 128
 144:	88 bb       	out	0x18, r24	; 24
		}
		if (adc_value >= 240){
 146:	20 3f       	cpi	r18, 0xF0	; 240
 148:	31 05       	cpc	r19, r1
 14a:	10 f0       	brcs	.+4      	; 0x150 <analogLEDTest+0x68>
			PORTB = 0xFF;
 14c:	8f ef       	ldi	r24, 0xFF	; 255
 14e:	88 bb       	out	0x18, r24	; 24
 150:	08 95       	ret

00000152 <midi_Transmit>:
		}
	}

void midi_Transmit( unsigned char data){
	/* Wait for empty transmit buffer */
	while((PINA & 0x02) && !(UCSRA & (1 << UDRE)) ) ;
 152:	c9 9b       	sbis	0x19, 1	; 25
 154:	02 c0       	rjmp	.+4      	; 0x15a <midi_Transmit+0x8>
 156:	5d 9b       	sbis	0x0b, 5	; 11
 158:	fc cf       	rjmp	.-8      	; 0x152 <midi_Transmit>

	/* Put data into buffer, sends the data */
	UDR = data;
 15a:	8c b9       	out	0x0c, r24	; 12
}
 15c:	08 95       	ret

0000015e <midiTransitTest>:
	start_addr = 0;
	
}

void midiTransitTest(){
	midi_Transmit(144);
 15e:	80 e9       	ldi	r24, 0x90	; 144
 160:	90 e0       	ldi	r25, 0x00	; 0
 162:	0e 94 a9 00 	call	0x152	; 0x152 <midi_Transmit>
	midi_Transmit(67);
 166:	83 e4       	ldi	r24, 0x43	; 67
 168:	90 e0       	ldi	r25, 0x00	; 0
 16a:	0e 94 a9 00 	call	0x152	; 0x152 <midi_Transmit>
	midi_Transmit(100);
 16e:	84 e6       	ldi	r24, 0x64	; 100
 170:	90 e0       	ldi	r25, 0x00	; 0
 172:	0e 94 a9 00 	call	0x152	; 0x152 <midi_Transmit>
 176:	88 e8       	ldi	r24, 0x88	; 136
 178:	93 e1       	ldi	r25, 0x13	; 19
    milliseconds can be achieved.
 */
void
_delay_loop_2(uint16_t __count)
{
	__asm__ volatile (
 17a:	24 e6       	ldi	r18, 0x64	; 100
 17c:	30 e0       	ldi	r19, 0x00	; 0
 17e:	f9 01       	movw	r30, r18
 180:	31 97       	sbiw	r30, 0x01	; 1
 182:	f1 f7       	brne	.-4      	; 0x180 <midiTransitTest+0x22>
		__ticks = (uint16_t) (__ms * 10.0);
		while(__ticks)
		{
			// wait 1/10 ms
			_delay_loop_2(((F_CPU) / 4e3) / 10);
			__ticks --;
 184:	01 97       	sbiw	r24, 0x01	; 1
		__ticks = 1;
	else if (__tmp > 65535)
	{
		//	__ticks = requested delay in 1/10 ms
		__ticks = (uint16_t) (__ms * 10.0);
		while(__ticks)
 186:	d9 f7       	brne	.-10     	; 0x17e <midiTransitTest+0x20>
	_delay_ms(500);
	midi_Transmit(128);
 188:	80 e8       	ldi	r24, 0x80	; 128
 18a:	90 e0       	ldi	r25, 0x00	; 0
 18c:	0e 94 a9 00 	call	0x152	; 0x152 <midi_Transmit>
	midi_Transmit(67);
 190:	83 e4       	ldi	r24, 0x43	; 67
 192:	90 e0       	ldi	r25, 0x00	; 0
 194:	0e 94 a9 00 	call	0x152	; 0x152 <midi_Transmit>
	midi_Transmit(100);
 198:	84 e6       	ldi	r24, 0x64	; 100
 19a:	90 e0       	ldi	r25, 0x00	; 0
 19c:	0e 94 a9 00 	call	0x152	; 0x152 <midi_Transmit>
 1a0:	88 e8       	ldi	r24, 0x88	; 136
 1a2:	93 e1       	ldi	r25, 0x13	; 19
 1a4:	24 e6       	ldi	r18, 0x64	; 100
 1a6:	30 e0       	ldi	r19, 0x00	; 0
 1a8:	f9 01       	movw	r30, r18
 1aa:	31 97       	sbiw	r30, 0x01	; 1
 1ac:	f1 f7       	brne	.-4      	; 0x1aa <midiTransitTest+0x4c>
		{
			// wait 1/10 ms
			_delay_loop_2(((F_CPU) / 4e3) / 10);
			__ticks --;
 1ae:	01 97       	sbiw	r24, 0x01	; 1
		__ticks = 1;
	else if (__tmp > 65535)
	{
		//	__ticks = requested delay in 1/10 ms
		__ticks = (uint16_t) (__ms * 10.0);
		while(__ticks)
 1b0:	d9 f7       	brne	.-10     	; 0x1a8 <midiTransitTest+0x4a>
	_delay_ms(500);

	midi_Transmit(144);
 1b2:	80 e9       	ldi	r24, 0x90	; 144
 1b4:	90 e0       	ldi	r25, 0x00	; 0
 1b6:	0e 94 a9 00 	call	0x152	; 0x152 <midi_Transmit>
	midi_Transmit(98);
 1ba:	82 e6       	ldi	r24, 0x62	; 98
 1bc:	90 e0       	ldi	r25, 0x00	; 0
 1be:	0e 94 a9 00 	call	0x152	; 0x152 <midi_Transmit>
	midi_Transmit(100);
 1c2:	84 e6       	ldi	r24, 0x64	; 100
 1c4:	90 e0       	ldi	r25, 0x00	; 0
 1c6:	0e 94 a9 00 	call	0x152	; 0x152 <midi_Transmit>
 1ca:	88 e8       	ldi	r24, 0x88	; 136
 1cc:	93 e1       	ldi	r25, 0x13	; 19
 1ce:	24 e6       	ldi	r18, 0x64	; 100
 1d0:	30 e0       	ldi	r19, 0x00	; 0
 1d2:	f9 01       	movw	r30, r18
 1d4:	31 97       	sbiw	r30, 0x01	; 1
 1d6:	f1 f7       	brne	.-4      	; 0x1d4 <midiTransitTest+0x76>
		{
			// wait 1/10 ms
			_delay_loop_2(((F_CPU) / 4e3) / 10);
			__ticks --;
 1d8:	01 97       	sbiw	r24, 0x01	; 1
		__ticks = 1;
	else if (__tmp > 65535)
	{
		//	__ticks = requested delay in 1/10 ms
		__ticks = (uint16_t) (__ms * 10.0);
		while(__ticks)
 1da:	d9 f7       	brne	.-10     	; 0x1d2 <midiTransitTest+0x74>
	_delay_ms(500);
	midi_Transmit(128);
 1dc:	80 e8       	ldi	r24, 0x80	; 128
 1de:	90 e0       	ldi	r25, 0x00	; 0
 1e0:	0e 94 a9 00 	call	0x152	; 0x152 <midi_Transmit>
	midi_Transmit(98);
 1e4:	82 e6       	ldi	r24, 0x62	; 98
 1e6:	90 e0       	ldi	r25, 0x00	; 0
 1e8:	0e 94 a9 00 	call	0x152	; 0x152 <midi_Transmit>
	midi_Transmit(100);
 1ec:	84 e6       	ldi	r24, 0x64	; 100
 1ee:	90 e0       	ldi	r25, 0x00	; 0
 1f0:	0e 94 a9 00 	call	0x152	; 0x152 <midi_Transmit>
 1f4:	88 e8       	ldi	r24, 0x88	; 136
 1f6:	93 e1       	ldi	r25, 0x13	; 19
 1f8:	24 e6       	ldi	r18, 0x64	; 100
 1fa:	30 e0       	ldi	r19, 0x00	; 0
 1fc:	f9 01       	movw	r30, r18
 1fe:	31 97       	sbiw	r30, 0x01	; 1
 200:	f1 f7       	brne	.-4      	; 0x1fe <midiTransitTest+0xa0>
		{
			// wait 1/10 ms
			_delay_loop_2(((F_CPU) / 4e3) / 10);
			__ticks --;
 202:	01 97       	sbiw	r24, 0x01	; 1
		__ticks = 1;
	else if (__tmp > 65535)
	{
		//	__ticks = requested delay in 1/10 ms
		__ticks = (uint16_t) (__ms * 10.0);
		while(__ticks)
 204:	d9 f7       	brne	.-10     	; 0x1fc <midiTransitTest+0x9e>
	_delay_ms(500);
	

	midi_Transmit(144);
 206:	80 e9       	ldi	r24, 0x90	; 144
 208:	90 e0       	ldi	r25, 0x00	; 0
 20a:	0e 94 a9 00 	call	0x152	; 0x152 <midi_Transmit>
	midi_Transmit(60);
 20e:	8c e3       	ldi	r24, 0x3C	; 60
 210:	90 e0       	ldi	r25, 0x00	; 0
 212:	0e 94 a9 00 	call	0x152	; 0x152 <midi_Transmit>
	midi_Transmit(100);
 216:	84 e6       	ldi	r24, 0x64	; 100
 218:	90 e0       	ldi	r25, 0x00	; 0
 21a:	0e 94 a9 00 	call	0x152	; 0x152 <midi_Transmit>
 21e:	88 e8       	ldi	r24, 0x88	; 136
 220:	93 e1       	ldi	r25, 0x13	; 19
 222:	24 e6       	ldi	r18, 0x64	; 100
 224:	30 e0       	ldi	r19, 0x00	; 0
 226:	f9 01       	movw	r30, r18
 228:	31 97       	sbiw	r30, 0x01	; 1
 22a:	f1 f7       	brne	.-4      	; 0x228 <midiTransitTest+0xca>
		{
			// wait 1/10 ms
			_delay_loop_2(((F_CPU) / 4e3) / 10);
			__ticks --;
 22c:	01 97       	sbiw	r24, 0x01	; 1
		__ticks = 1;
	else if (__tmp > 65535)
	{
		//	__ticks = requested delay in 1/10 ms
		__ticks = (uint16_t) (__ms * 10.0);
		while(__ticks)
 22e:	d9 f7       	brne	.-10     	; 0x226 <midiTransitTest+0xc8>
	_delay_ms(500);
	midi_Transmit(128);
 230:	80 e8       	ldi	r24, 0x80	; 128
 232:	90 e0       	ldi	r25, 0x00	; 0
 234:	0e 94 a9 00 	call	0x152	; 0x152 <midi_Transmit>
	midi_Transmit(60);
 238:	8c e3       	ldi	r24, 0x3C	; 60
 23a:	90 e0       	ldi	r25, 0x00	; 0
 23c:	0e 94 a9 00 	call	0x152	; 0x152 <midi_Transmit>
	midi_Transmit(100);
 240:	84 e6       	ldi	r24, 0x64	; 100
 242:	90 e0       	ldi	r25, 0x00	; 0
 244:	0e 94 a9 00 	call	0x152	; 0x152 <midi_Transmit>
 248:	88 e8       	ldi	r24, 0x88	; 136
 24a:	93 e1       	ldi	r25, 0x13	; 19
 24c:	24 e6       	ldi	r18, 0x64	; 100
 24e:	30 e0       	ldi	r19, 0x00	; 0
 250:	f9 01       	movw	r30, r18
 252:	31 97       	sbiw	r30, 0x01	; 1
 254:	f1 f7       	brne	.-4      	; 0x252 <midiTransitTest+0xf4>
		{
			// wait 1/10 ms
			_delay_loop_2(((F_CPU) / 4e3) / 10);
			__ticks --;
 256:	01 97       	sbiw	r24, 0x01	; 1
		__ticks = 1;
	else if (__tmp > 65535)
	{
		//	__ticks = requested delay in 1/10 ms
		__ticks = (uint16_t) (__ms * 10.0);
		while(__ticks)
 258:	d9 f7       	brne	.-10     	; 0x250 <midiTransitTest+0xf2>
	_delay_ms(500);

}
 25a:	08 95       	ret

0000025c <playSongMod>:
	}
	start_addr = 0;
	
}

void playSongMod(){
 25c:	cf 92       	push	r12
 25e:	df 92       	push	r13
 260:	ef 92       	push	r14
 262:	ff 92       	push	r15
 264:	0f 93       	push	r16
 266:	1f 93       	push	r17
 268:	cf 93       	push	r28
 26a:	df 93       	push	r29
 26c:	8b c0       	rjmp	.+278    	; 0x384 <playSongMod+0x128>
	
	while(start_addr < stop_addr){
 26e:	20 e0       	ldi	r18, 0x00	; 0
 270:	30 e0       	ldi	r19, 0x00	; 0
	}
	start_addr = 0;
	
}

void playSongMod(){
 272:	c9 01       	movw	r24, r18
 274:	84 0f       	add	r24, r20
 276:	95 1f       	adc	r25, r21
	//SREG = cSREG;
}

unsigned char EEPROM_read(unsigned int uiAddress){
	/* wait for completion of previous write */
	while(EECR & (1<< EEWE));
 278:	e1 99       	sbic	0x1c, 1	; 28
 27a:	fe cf       	rjmp	.-4      	; 0x278 <playSongMod+0x1c>
	/* Set up address register */
	EEAR = uiAddress;
 27c:	9f bb       	out	0x1f, r25	; 31
 27e:	8e bb       	out	0x1e, r24	; 30
	//char cSREG;
	//cSREG = SREG;
	//cli();
	/* Start eeprom read by writing EERE */
	EECR |= (1<< EERE);
 280:	e0 9a       	sbi	0x1c, 0	; 28
	/* Return data from data register */
	//SREG = cSREG;
	return EEDR;
 282:	8d b3       	in	r24, 0x1d	; 29
	while(start_addr < stop_addr){
		

		for(int i = 0; i < 5; i++){

			midiData[i] = EEPROM_read(start_addr);
 284:	f9 01       	movw	r30, r18
 286:	e6 58       	subi	r30, 0x86	; 134
 288:	fe 4f       	sbci	r31, 0xFE	; 254
 28a:	80 83       	st	Z, r24
			start_addr++;
			if(i==4){
 28c:	24 30       	cpi	r18, 0x04	; 4
 28e:	31 05       	cpc	r19, r1
 290:	11 f4       	brne	.+4      	; 0x296 <playSongMod+0x3a>
				TCNT1 = 0;
 292:	1d bc       	out	0x2d, r1	; 45
 294:	1c bc       	out	0x2c, r1	; 44
void playSongMod(){
	
	while(start_addr < stop_addr){
		

		for(int i = 0; i < 5; i++){
 296:	2f 5f       	subi	r18, 0xFF	; 255
 298:	3f 4f       	sbci	r19, 0xFF	; 255
 29a:	25 30       	cpi	r18, 0x05	; 5
 29c:	31 05       	cpc	r19, r1
 29e:	49 f7       	brne	.-46     	; 0x272 <playSongMod+0x16>
 2a0:	4b 5f       	subi	r20, 0xFB	; 251
 2a2:	5f 4f       	sbci	r21, 0xFF	; 255
 2a4:	50 93 75 01 	sts	0x0175, r21
 2a8:	40 93 74 01 	sts	0x0174, r20
			}
		}

		uint16_t lsb = midiData[3];
		uint16_t msb = midiData[4];
		uint16_t timeInterval = lsb + (0xFF00 & (msb << 8) );
 2ac:	d0 91 7e 01 	lds	r29, 0x017E
 2b0:	c0 e0       	ldi	r28, 0x00	; 0
 2b2:	80 91 7d 01 	lds	r24, 0x017D
 2b6:	6e 01       	movw	r12, r28
 2b8:	c8 0e       	add	r12, r24
 2ba:	d1 1c       	adc	r13, r1
		float speedMod;
		if(ReadADC() > 0 && ReadADC() < 180){
 2bc:	0e 94 6c 00 	call	0xd8	; 0xd8 <ReadADC>
 2c0:	89 2b       	or	r24, r25
 2c2:	81 f0       	breq	.+32     	; 0x2e4 <playSongMod+0x88>
 2c4:	0e 94 6c 00 	call	0xd8	; 0xd8 <ReadADC>
 2c8:	84 3b       	cpi	r24, 0xB4	; 180
 2ca:	91 05       	cpc	r25, r1
 2cc:	58 f4       	brcc	.+22     	; 0x2e4 <playSongMod+0x88>
 2ce:	0f 2e       	mov	r0, r31
 2d0:	f0 e0       	ldi	r31, 0x00	; 0
 2d2:	ef 2e       	mov	r14, r31
 2d4:	f0 e0       	ldi	r31, 0x00	; 0
 2d6:	ff 2e       	mov	r15, r31
 2d8:	f0 e4       	ldi	r31, 0x40	; 64
 2da:	0f 2f       	mov	r16, r31
 2dc:	f0 e4       	ldi	r31, 0x40	; 64
 2de:	1f 2f       	mov	r17, r31
 2e0:	f0 2d       	mov	r31, r0
 2e2:	1f c0       	rjmp	.+62     	; 0x322 <playSongMod+0xc6>
			speedMod = 3;
		}else if(ReadADC() > 180 && ReadADC() < 240){
 2e4:	0e 94 6c 00 	call	0xd8	; 0xd8 <ReadADC>
 2e8:	85 3b       	cpi	r24, 0xB5	; 181
 2ea:	91 05       	cpc	r25, r1
 2ec:	80 f0       	brcs	.+32     	; 0x30e <playSongMod+0xb2>
 2ee:	0e 94 6c 00 	call	0xd8	; 0xd8 <ReadADC>
 2f2:	80 3f       	cpi	r24, 0xF0	; 240
 2f4:	91 05       	cpc	r25, r1
 2f6:	58 f4       	brcc	.+22     	; 0x30e <playSongMod+0xb2>
 2f8:	0f 2e       	mov	r0, r31
 2fa:	f0 e0       	ldi	r31, 0x00	; 0
 2fc:	ef 2e       	mov	r14, r31
 2fe:	f0 e0       	ldi	r31, 0x00	; 0
 300:	ff 2e       	mov	r15, r31
 302:	f0 e0       	ldi	r31, 0x00	; 0
 304:	0f 2f       	mov	r16, r31
 306:	ff e3       	ldi	r31, 0x3F	; 63
 308:	1f 2f       	mov	r17, r31
 30a:	f0 2d       	mov	r31, r0
 30c:	0a c0       	rjmp	.+20     	; 0x322 <playSongMod+0xc6>
 30e:	0f 2e       	mov	r0, r31
 310:	fd ec       	ldi	r31, 0xCD	; 205
 312:	ef 2e       	mov	r14, r31
 314:	fc ec       	ldi	r31, 0xCC	; 204
 316:	ff 2e       	mov	r15, r31
 318:	fc ec       	ldi	r31, 0xCC	; 204
 31a:	0f 2f       	mov	r16, r31
 31c:	fd e3       	ldi	r31, 0x3D	; 61
 31e:	1f 2f       	mov	r17, r31
 320:	f0 2d       	mov	r31, r0
		}
		else{
			speedMod = .1;
		}

		if(start_addr != 5){
 322:	80 91 74 01 	lds	r24, 0x0174
 326:	90 91 75 01 	lds	r25, 0x0175
 32a:	05 97       	sbiw	r24, 0x05	; 5
 32c:	b9 f0       	breq	.+46     	; 0x35c <playSongMod+0x100>
			while(TCNT1 < timeInterval*speedMod);
 32e:	b6 01       	movw	r22, r12
 330:	80 e0       	ldi	r24, 0x00	; 0
 332:	90 e0       	ldi	r25, 0x00	; 0
 334:	0e 94 de 04 	call	0x9bc	; 0x9bc <__floatunsisf>
 338:	a8 01       	movw	r20, r16
 33a:	97 01       	movw	r18, r14
 33c:	0e 94 b4 03 	call	0x768	; 0x768 <__mulsf3>
 340:	7b 01       	movw	r14, r22
 342:	8c 01       	movw	r16, r24
 344:	6c b5       	in	r22, 0x2c	; 44
 346:	7d b5       	in	r23, 0x2d	; 45
 348:	80 e0       	ldi	r24, 0x00	; 0
 34a:	90 e0       	ldi	r25, 0x00	; 0
 34c:	0e 94 de 04 	call	0x9bc	; 0x9bc <__floatunsisf>
 350:	a8 01       	movw	r20, r16
 352:	97 01       	movw	r18, r14
 354:	0e 94 ae 04 	call	0x95c	; 0x95c <__ltsf2>
 358:	87 fd       	sbrc	r24, 7
 35a:	f4 cf       	rjmp	.-24     	; 0x344 <playSongMod+0xe8>
 35c:	00 e0       	ldi	r16, 0x00	; 0
 35e:	10 e0       	ldi	r17, 0x00	; 0
		}


		
		for(int i = 0; i < 3; i++){
			midi_Transmit(midiData[i]);
 360:	f8 01       	movw	r30, r16
 362:	e6 58       	subi	r30, 0x86	; 134
 364:	fe 4f       	sbci	r31, 0xFE	; 254
 366:	80 81       	ld	r24, Z
 368:	90 e0       	ldi	r25, 0x00	; 0
 36a:	0e 94 a9 00 	call	0x152	; 0x152 <midi_Transmit>
			if(i==1){
 36e:	01 30       	cpi	r16, 0x01	; 1
 370:	11 05       	cpc	r17, r1
 372:	19 f4       	brne	.+6      	; 0x37a <playSongMod+0x11e>
				PORTB = midiData[i];
 374:	80 91 7b 01 	lds	r24, 0x017B
 378:	88 bb       	out	0x18, r24	; 24
			while(TCNT1 < timeInterval*speedMod);
		}


		
		for(int i = 0; i < 3; i++){
 37a:	0f 5f       	subi	r16, 0xFF	; 255
 37c:	1f 4f       	sbci	r17, 0xFF	; 255
 37e:	03 30       	cpi	r16, 0x03	; 3
 380:	11 05       	cpc	r17, r1
 382:	71 f7       	brne	.-36     	; 0x360 <playSongMod+0x104>
	
}

void playSongMod(){
	
	while(start_addr < stop_addr){
 384:	40 91 74 01 	lds	r20, 0x0174
 388:	50 91 75 01 	lds	r21, 0x0175
 38c:	80 91 76 01 	lds	r24, 0x0176
 390:	90 91 77 01 	lds	r25, 0x0177
 394:	48 17       	cp	r20, r24
 396:	59 07       	cpc	r21, r25
 398:	08 f4       	brcc	.+2      	; 0x39c <playSongMod+0x140>
 39a:	69 cf       	rjmp	.-302    	; 0x26e <playSongMod+0x12>
			if(i==1){
				PORTB = midiData[i];
			}
		}
	}
	start_addr = 0;
 39c:	10 92 75 01 	sts	0x0175, r1
 3a0:	10 92 74 01 	sts	0x0174, r1
	
}
 3a4:	df 91       	pop	r29
 3a6:	cf 91       	pop	r28
 3a8:	1f 91       	pop	r17
 3aa:	0f 91       	pop	r16
 3ac:	ff 90       	pop	r15
 3ae:	ef 90       	pop	r14
 3b0:	df 90       	pop	r13
 3b2:	cf 90       	pop	r12
 3b4:	08 95       	ret

000003b6 <modify>:
	playSong();
}


void modify(){
	playSongMod();
 3b6:	0e 94 2e 01 	call	0x25c	; 0x25c <playSongMod>
}
 3ba:	08 95       	ret

000003bc <playSong>:
	}
	
	
}

void playSong(){
 3bc:	0f 93       	push	r16
 3be:	1f 93       	push	r17
 3c0:	cf 93       	push	r28
 3c2:	df 93       	push	r29
 3c4:	42 c0       	rjmp	.+132    	; 0x44a <playSong+0x8e>
	
	while(start_addr < stop_addr && (PINA & 0x02) ){
 3c6:	40 e0       	ldi	r20, 0x00	; 0
 3c8:	50 e0       	ldi	r21, 0x00	; 0
	}
	
	
}

void playSong(){
 3ca:	ca 01       	movw	r24, r20
 3cc:	82 0f       	add	r24, r18
 3ce:	93 1f       	adc	r25, r19
	//SREG = cSREG;
}

unsigned char EEPROM_read(unsigned int uiAddress){
	/* wait for completion of previous write */
	while(EECR & (1<< EEWE));
 3d0:	e1 99       	sbic	0x1c, 1	; 28
 3d2:	fe cf       	rjmp	.-4      	; 0x3d0 <playSong+0x14>
	/* Set up address register */
	EEAR = uiAddress;
 3d4:	9f bb       	out	0x1f, r25	; 31
 3d6:	8e bb       	out	0x1e, r24	; 30
	//char cSREG;
	//cSREG = SREG;
	//cli();
	/* Start eeprom read by writing EERE */
	EECR |= (1<< EERE);
 3d8:	e0 9a       	sbi	0x1c, 0	; 28
	/* Return data from data register */
	//SREG = cSREG;
	return EEDR;
 3da:	8d b3       	in	r24, 0x1d	; 29
	while(start_addr < stop_addr && (PINA & 0x02) ){
		

		for(int i = 0; i < 5; i++){

			midiData[i] = EEPROM_read(start_addr);
 3dc:	fa 01       	movw	r30, r20
 3de:	e6 58       	subi	r30, 0x86	; 134
 3e0:	fe 4f       	sbci	r31, 0xFE	; 254
 3e2:	80 83       	st	Z, r24
			start_addr++;
			if(i==4){
 3e4:	44 30       	cpi	r20, 0x04	; 4
 3e6:	51 05       	cpc	r21, r1
 3e8:	11 f4       	brne	.+4      	; 0x3ee <playSong+0x32>
				TCNT1 = 0;
 3ea:	1d bc       	out	0x2d, r1	; 45
 3ec:	1c bc       	out	0x2c, r1	; 44
void playSong(){
	
	while(start_addr < stop_addr && (PINA & 0x02) ){
		

		for(int i = 0; i < 5; i++){
 3ee:	4f 5f       	subi	r20, 0xFF	; 255
 3f0:	5f 4f       	sbci	r21, 0xFF	; 255
 3f2:	45 30       	cpi	r20, 0x05	; 5
 3f4:	51 05       	cpc	r21, r1
 3f6:	49 f7       	brne	.-46     	; 0x3ca <playSong+0xe>
 3f8:	2b 5f       	subi	r18, 0xFB	; 251
 3fa:	3f 4f       	sbci	r19, 0xFF	; 255
 3fc:	30 93 75 01 	sts	0x0175, r19
 400:	20 93 74 01 	sts	0x0174, r18
			}
		}

		uint16_t lsb = midiData[3];
		uint16_t msb = midiData[4];
		uint16_t timeInterval = lsb + (0xFF00 & (msb << 8) );
 404:	10 91 7e 01 	lds	r17, 0x017E
 408:	00 e0       	ldi	r16, 0x00	; 0
 40a:	80 91 7d 01 	lds	r24, 0x017D
 40e:	a8 01       	movw	r20, r16
 410:	48 0f       	add	r20, r24
 412:	51 1d       	adc	r21, r1
		
		if(start_addr != 5){
 414:	25 30       	cpi	r18, 0x05	; 5
 416:	31 05       	cpc	r19, r1
 418:	29 f0       	breq	.+10     	; 0x424 <playSong+0x68>
			while(TCNT1 < timeInterval);
 41a:	8c b5       	in	r24, 0x2c	; 44
 41c:	9d b5       	in	r25, 0x2d	; 45
 41e:	84 17       	cp	r24, r20
 420:	95 07       	cpc	r25, r21
 422:	d8 f3       	brcs	.-10     	; 0x41a <playSong+0x5e>
 424:	c0 e0       	ldi	r28, 0x00	; 0
 426:	d0 e0       	ldi	r29, 0x00	; 0
		}
		
		for(int i = 0; i < 3; i++){
			midi_Transmit(midiData[i]);
 428:	fe 01       	movw	r30, r28
 42a:	e6 58       	subi	r30, 0x86	; 134
 42c:	fe 4f       	sbci	r31, 0xFE	; 254
 42e:	80 81       	ld	r24, Z
 430:	90 e0       	ldi	r25, 0x00	; 0
 432:	0e 94 a9 00 	call	0x152	; 0x152 <midi_Transmit>
			if(i==1){
 436:	c1 30       	cpi	r28, 0x01	; 1
 438:	d1 05       	cpc	r29, r1
 43a:	19 f4       	brne	.+6      	; 0x442 <playSong+0x86>
				PORTB = midiData[i];
 43c:	80 91 7b 01 	lds	r24, 0x017B
 440:	88 bb       	out	0x18, r24	; 24
		
		if(start_addr != 5){
			while(TCNT1 < timeInterval);
		}
		
		for(int i = 0; i < 3; i++){
 442:	21 96       	adiw	r28, 0x01	; 1
 444:	c3 30       	cpi	r28, 0x03	; 3
 446:	d1 05       	cpc	r29, r1
 448:	79 f7       	brne	.-34     	; 0x428 <playSong+0x6c>
	
}

void playSong(){
	
	while(start_addr < stop_addr && (PINA & 0x02) ){
 44a:	20 91 74 01 	lds	r18, 0x0174
 44e:	30 91 75 01 	lds	r19, 0x0175
 452:	80 91 76 01 	lds	r24, 0x0176
 456:	90 91 77 01 	lds	r25, 0x0177
 45a:	28 17       	cp	r18, r24
 45c:	39 07       	cpc	r19, r25
 45e:	10 f4       	brcc	.+4      	; 0x464 <playSong+0xa8>
 460:	c9 99       	sbic	0x19, 1	; 25
 462:	b1 cf       	rjmp	.-158    	; 0x3c6 <playSong+0xa>
				PORTB = midiData[i];
			}		
		}
		
	}
	start_addr = 0;
 464:	10 92 75 01 	sts	0x0175, r1
 468:	10 92 74 01 	sts	0x0174, r1
	
}
 46c:	df 91       	pop	r29
 46e:	cf 91       	pop	r28
 470:	1f 91       	pop	r17
 472:	0f 91       	pop	r16
 474:	08 95       	ret

00000476 <playBack>:
}

void playBack(){
	//midiTransitTest();
	//eeprom_test();
	playSong();
 476:	0e 94 de 01 	call	0x3bc	; 0x3bc <playSong>
}
 47a:	08 95       	ret

0000047c <midi_Receive>:
	UDR = data;
}

unsigned char midi_Receive(void){
	/* Wait for data to be recieved */
	while( (PINA&0x04)&&(!(UCSRA & (1<<RXC)) ));
 47c:	ca 9b       	sbis	0x19, 2	; 25
 47e:	02 c0       	rjmp	.+4      	; 0x484 <midi_Receive+0x8>
 480:	5f 9b       	sbis	0x0b, 7	; 11
 482:	fc cf       	rjmp	.-8      	; 0x47c <midi_Receive>

	/* get and return data from buffer */
	return UDR;
 484:	8c b1       	in	r24, 0x0c	; 12
}
 486:	08 95       	ret

00000488 <midi_Flush>:

/* flushs the buffer of the midi */
void midi_Flush(void){ 
 488:	01 c0       	rjmp	.+2      	; 0x48c <midi_Flush+0x4>
	unsigned char dummy;
	while (UCSRA & (1 << RXC) ) dummy = UDR;
 48a:	8c b1       	in	r24, 0x0c	; 12
 48c:	5f 99       	sbic	0x0b, 7	; 11
 48e:	fd cf       	rjmp	.-6      	; 0x48a <midi_Flush+0x2>
}
 490:	08 95       	ret

00000492 <midi_ReadUCSRC>:

unsigned char midi_ReadUCSRC(void){
	unsigned char ucsrc;
	/* read UCSRC */
	//note may need cli() to disable interrupts
	ucsrc = UBRRH;
 492:	80 b5       	in	r24, 0x20	; 32
	ucsrc = UCSRC;
 494:	80 b5       	in	r24, 0x20	; 32
	return ucsrc;
}
 496:	08 95       	ret

00000498 <TIM16_ReadTCNT1>:

unsigned char TIM16_ReadTCNT1(void){
	unsigned char sreg;
	unsigned char i;
	/* save gloval interrupt flag */
	sreg = SREG;
 498:	2f b7       	in	r18, 0x3f	; 63
	/* disable interrupts */
	cli();
 49a:	f8 94       	cli
	/* read TCNT1 into i */
	i = TCNT1;
 49c:	8c b5       	in	r24, 0x2c	; 44
 49e:	9d b5       	in	r25, 0x2d	; 45
	/* restore global interrupt flag */
	SREG = sreg;
 4a0:	2f bf       	out	0x3f, r18	; 63
	return i;
}
 4a2:	08 95       	ret

000004a4 <TIM16_WriteTCNT1>:

void TIM16_WriteTCNT1 (unsigned int i){
	unsigned char sreg;
	/* save global interrupt flag */
	sreg = SREG;
 4a4:	2f b7       	in	r18, 0x3f	; 63
	/* disable interrupts */
	cli();
 4a6:	f8 94       	cli
	/* set tcnt1 to i */
	TCNT1 = i;
 4a8:	9d bd       	out	0x2d, r25	; 45
 4aa:	8c bd       	out	0x2c, r24	; 44
	/* restore global interrupt flag */
	SREG = sreg;
 4ac:	2f bf       	out	0x3f, r18	; 63
}
 4ae:	08 95       	ret

000004b0 <EEPROM_write>:

void EEPROM_write(unsigned int uiAddress, unsigned char ucData){
	/* wait for completion of previous write */
	while (EECR & (1 <<EEWE));
 4b0:	e1 99       	sbic	0x1c, 1	; 28
 4b2:	fe cf       	rjmp	.-4      	; 0x4b0 <EEPROM_write>

	
	/* Set up address and data registers */
	EEAR = uiAddress;
 4b4:	9f bb       	out	0x1f, r25	; 31
 4b6:	8e bb       	out	0x1e, r24	; 30
	EEDR = ucData;
 4b8:	6d bb       	out	0x1d, r22	; 29
	//char cSREG;
	//cSREG = SREG;
	//cli();

	/* Write logical one to EEMWE */
	EECR |= (1 << EEMWE);
 4ba:	e2 9a       	sbi	0x1c, 2	; 28
	/* Start eeporm write by setting EEWE */
	EECR |= (1 << EEWE);
 4bc:	e1 9a       	sbi	0x1c, 1	; 28
	//SREG = cSREG;
}
 4be:	08 95       	ret

000004c0 <writeSong2>:
	PORTB = EEPROM_read(9);
	_delay_ms(500);
}


void writeSong2(){
 4c0:	cf 93       	push	r28
 4c2:	df 93       	push	r29
 4c4:	20 e0       	ldi	r18, 0x00	; 0
 4c6:	30 e0       	ldi	r19, 0x00	; 0
	UDR = data;
}

unsigned char midi_Receive(void){
	/* Wait for data to be recieved */
	while( (PINA&0x04)&&(!(UCSRA & (1<<RXC)) ));
 4c8:	ca 9b       	sbis	0x19, 2	; 25
 4ca:	02 c0       	rjmp	.+4      	; 0x4d0 <writeSong2+0x10>
 4cc:	5f 9b       	sbis	0x0b, 7	; 11
 4ce:	fc cf       	rjmp	.-8      	; 0x4c8 <writeSong2+0x8>

	/* get and return data from buffer */
	return UDR;
 4d0:	8c b1       	in	r24, 0x0c	; 12

void writeSong2(){
	uint8_t lsb;
	uint8_t msb;
	for(int i = 0; i <3; i++){
		midiData[i] = midi_Receive();
 4d2:	f9 01       	movw	r30, r18
 4d4:	e6 58       	subi	r30, 0x86	; 134
 4d6:	fe 4f       	sbci	r31, 0xFE	; 254
 4d8:	80 83       	st	Z, r24
		if(i==0){
 4da:	21 15       	cp	r18, r1
 4dc:	31 05       	cpc	r19, r1
 4de:	39 f4       	brne	.+14     	; 0x4ee <writeSong2+0x2e>
			 lsb = TCNT1&0xFF;
 4e0:	8c b5       	in	r24, 0x2c	; 44
 4e2:	9d b5       	in	r25, 0x2d	; 45
 4e4:	48 2f       	mov	r20, r24
			 msb = (TCNT1>>8);
 4e6:	8c b5       	in	r24, 0x2c	; 44
 4e8:	9d b5       	in	r25, 0x2d	; 45
			 TCNT1 = 0;
 4ea:	1d bc       	out	0x2d, r1	; 45
 4ec:	1c bc       	out	0x2c, r1	; 44


void writeSong2(){
	uint8_t lsb;
	uint8_t msb;
	for(int i = 0; i <3; i++){
 4ee:	2f 5f       	subi	r18, 0xFF	; 255
 4f0:	3f 4f       	sbci	r19, 0xFF	; 255
 4f2:	23 30       	cpi	r18, 0x03	; 3
 4f4:	31 05       	cpc	r19, r1
 4f6:	44 f3       	brlt	.-48     	; 0x4c8 <writeSong2+0x8>
			 lsb = TCNT1&0xFF;
			 msb = (TCNT1>>8);
			 TCNT1 = 0;
		}
	}
	midiData[3]= lsb;
 4f8:	40 93 7d 01 	sts	0x017D, r20
	midiData[4]= msb;
 4fc:	90 93 7e 01 	sts	0x017E, r25
	PORTB = midiData[1];
 500:	80 91 7b 01 	lds	r24, 0x017B
 504:	88 bb       	out	0x18, r24	; 24
	// unsigned char lsb = (0xFF & ((interval << 8) >> 8));
	// unsigned char msb = (0xFF & ((interval >> 8)));
	// midiData[3] = lsb;
	// midiData[4] = msb;

	stop_addr = eeprom_address;
 506:	80 91 72 01 	lds	r24, 0x0172
 50a:	90 91 73 01 	lds	r25, 0x0173
 50e:	90 93 77 01 	sts	0x0177, r25
 512:	80 93 76 01 	sts	0x0176, r24
 516:	ca e7       	ldi	r28, 0x7A	; 122
 518:	d1 e0       	ldi	r29, 0x01	; 1
	for(int j= 0; j < 5; j++){
		EEPROM_write(eeprom_address, midiData[j]);
 51a:	80 91 72 01 	lds	r24, 0x0172
 51e:	90 91 73 01 	lds	r25, 0x0173
 522:	69 91       	ld	r22, Y+
 524:	0e 94 58 02 	call	0x4b0	; 0x4b0 <EEPROM_write>
		eeprom_address++;		
 528:	80 91 72 01 	lds	r24, 0x0172
 52c:	90 91 73 01 	lds	r25, 0x0173
 530:	01 96       	adiw	r24, 0x01	; 1
 532:	90 93 73 01 	sts	0x0173, r25
 536:	80 93 72 01 	sts	0x0172, r24
	// unsigned char msb = (0xFF & ((interval >> 8)));
	// midiData[3] = lsb;
	// midiData[4] = msb;

	stop_addr = eeprom_address;
	for(int j= 0; j < 5; j++){
 53a:	81 e0       	ldi	r24, 0x01	; 1
 53c:	cf 37       	cpi	r28, 0x7F	; 127
 53e:	d8 07       	cpc	r29, r24
 540:	61 f7       	brne	.-40     	; 0x51a <writeSong2+0x5a>
		EEPROM_write(eeprom_address, midiData[j]);
		eeprom_address++;		
	}
	
	
}
 542:	df 91       	pop	r29
 544:	cf 91       	pop	r28
 546:	08 95       	ret

00000548 <record>:
    }
}
/***** Main Methods *****/

void record(){
	 writeSong2();
 548:	0e 94 60 02 	call	0x4c0	; 0x4c0 <writeSong2>
	//midiTransitTest();
}
 54c:	08 95       	ret

0000054e <main>:
void playSong();
void playSong2();


/***** Main Loop *****/
int main(void){
 54e:	1f 93       	push	r17
	UBRRL = (unsigned char) baudrate;
	UCSRB = (1 << TXEN) | (1 << RXEN);
	UCSRC = (1 << URSEL )|(0 << USBS) | (3 << UCSZ0); //only use 8 bit words
}
void setupPins(){
	DDRB = 0xFF;  //Set outp1ts
 550:	8f ef       	ldi	r24, 0xFF	; 255
 552:	87 bb       	out	0x17, r24	; 23
	DDRA = 0x00;  //Set inputs
 554:	1a ba       	out	0x1a, r1	; 26
	PORTB = 0x00; //Turns all leds off
 556:	18 ba       	out	0x18, r1	; 24
	PORTA = 0x07; // sets inputs to return 5v on PA0, PA1, PA2
 558:	17 e0       	ldi	r17, 0x07	; 7
 55a:	1b bb       	out	0x1b, r17	; 27
	DDRD = 0x00;
 55c:	11 ba       	out	0x11, r1	; 17


/***** Main Loop *****/
int main(void){
   setupPins();
   setupTimer();
 55e:	0e 94 5d 00 	call	0xba	; 0xba <setupTimer>
	PORTB = 0x00; //Turns all leds off
	PORTA = 0x07; // sets inputs to return 5v on PA0, PA1, PA2
	DDRD = 0x00;
}
void setupAnalog(){
	ADMUX = (1 << REFS0) | (1<< MUX0) | (1<< MUX1) | (1<< MUX2); // sets the analog input of the photosensor to 0-5v, sets to look at the 7th analog pin.
 562:	87 e4       	ldi	r24, 0x47	; 71
 564:	87 b9       	out	0x07, r24	; 7
	ADCSRA =  (1 << ADEN) | (1<< ADPS2) | (1<< ADPS1) | (1<< ADPS0); // ADEN turns ADC on; ADPS sets prescaler to 128;
 566:	87 e8       	ldi	r24, 0x87	; 135
 568:	86 b9       	out	0x06, r24	; 6


/***** Setup Methods *****/

void setupMIDI(unsigned int baudrate){
	UBRRH = (unsigned char) (baudrate >> 8);
 56a:	10 bc       	out	0x20, r1	; 32
	UBRRL = (unsigned char) baudrate;
 56c:	19 b9       	out	0x09, r17	; 9
	UCSRB = (1 << TXEN) | (1 << RXEN);
 56e:	88 e1       	ldi	r24, 0x18	; 24
 570:	8a b9       	out	0x0a, r24	; 10
	UCSRC = (1 << URSEL )|(0 << USBS) | (3 << UCSZ0); //only use 8 bit words
 572:	86 e8       	ldi	r24, 0x86	; 134
 574:	80 bd       	out	0x20, r24	; 32
   setupTimer();
   setupAnalog();
   setupMIDI(BUAD_PRESCALE);

    while(1){
		uint8_t rec = PINA & 0x04;
 576:	89 b3       	in	r24, 0x19	; 25
		uint8_t play = PINA & 0x02;
 578:	99 b3       	in	r25, 0x19	; 25
 57a:	92 70       	andi	r25, 0x02	; 2
		uint8_t mod = PINA & 0x01;
 57c:	29 b3       	in	r18, 0x19	; 25
	
		if(rec && !play){
 57e:	82 ff       	sbrs	r24, 2
 580:	05 c0       	rjmp	.+10     	; 0x58c <main+0x3e>
 582:	99 23       	and	r25, r25
 584:	69 f4       	brne	.+26     	; 0x5a0 <main+0x52>
    }
}
/***** Main Methods *****/

void record(){
	 writeSong2();
 586:	0e 94 60 02 	call	0x4c0	; 0x4c0 <writeSong2>
 58a:	f5 cf       	rjmp	.-22     	; 0x576 <main+0x28>
		uint8_t play = PINA & 0x02;
		uint8_t mod = PINA & 0x01;
	
		if(rec && !play){
			record();
		} else if(play && !rec){
 58c:	99 23       	and	r25, r25
 58e:	41 f0       	breq	.+16     	; 0x5a0 <main+0x52>
			if (mod){ // Modify Mode
 590:	20 ff       	sbrs	r18, 0
 592:	03 c0       	rjmp	.+6      	; 0x59a <main+0x4c>
	playSong();
}


void modify(){
	playSongMod();
 594:	0e 94 2e 01 	call	0x25c	; 0x25c <playSongMod>
 598:	ee cf       	rjmp	.-36     	; 0x576 <main+0x28>
}

void playBack(){
	//midiTransitTest();
	//eeprom_test();
	playSong();
 59a:	0e 94 de 01 	call	0x3bc	; 0x3bc <playSong>
 59e:	eb cf       	rjmp	.-42     	; 0x576 <main+0x28>
}



void ledOFF(){
	PORTB = 0x00;
 5a0:	18 ba       	out	0x18, r1	; 24
 5a2:	e9 cf       	rjmp	.-46     	; 0x576 <main+0x28>

000005a4 <eeprom_test>:




void eeprom_test(){
	EEPROM_write(1, 1);
 5a4:	81 e0       	ldi	r24, 0x01	; 1
 5a6:	90 e0       	ldi	r25, 0x00	; 0
 5a8:	61 e0       	ldi	r22, 0x01	; 1
 5aa:	0e 94 58 02 	call	0x4b0	; 0x4b0 <EEPROM_write>
	EEPROM_write(2, 2);
 5ae:	82 e0       	ldi	r24, 0x02	; 2
 5b0:	90 e0       	ldi	r25, 0x00	; 0
 5b2:	62 e0       	ldi	r22, 0x02	; 2
 5b4:	0e 94 58 02 	call	0x4b0	; 0x4b0 <EEPROM_write>
	EEPROM_write(3, 3);
 5b8:	83 e0       	ldi	r24, 0x03	; 3
 5ba:	90 e0       	ldi	r25, 0x00	; 0
 5bc:	63 e0       	ldi	r22, 0x03	; 3
 5be:	0e 94 58 02 	call	0x4b0	; 0x4b0 <EEPROM_write>
	EEPROM_write(4, 4);
 5c2:	84 e0       	ldi	r24, 0x04	; 4
 5c4:	90 e0       	ldi	r25, 0x00	; 0
 5c6:	64 e0       	ldi	r22, 0x04	; 4
 5c8:	0e 94 58 02 	call	0x4b0	; 0x4b0 <EEPROM_write>
	EEPROM_write(5, 5);
 5cc:	85 e0       	ldi	r24, 0x05	; 5
 5ce:	90 e0       	ldi	r25, 0x00	; 0
 5d0:	65 e0       	ldi	r22, 0x05	; 5
 5d2:	0e 94 58 02 	call	0x4b0	; 0x4b0 <EEPROM_write>
	EEPROM_write(6, 6);
 5d6:	86 e0       	ldi	r24, 0x06	; 6
 5d8:	90 e0       	ldi	r25, 0x00	; 0
 5da:	66 e0       	ldi	r22, 0x06	; 6
 5dc:	0e 94 58 02 	call	0x4b0	; 0x4b0 <EEPROM_write>
	EEPROM_write(7, 7);
 5e0:	87 e0       	ldi	r24, 0x07	; 7
 5e2:	90 e0       	ldi	r25, 0x00	; 0
 5e4:	67 e0       	ldi	r22, 0x07	; 7
 5e6:	0e 94 58 02 	call	0x4b0	; 0x4b0 <EEPROM_write>
	EEPROM_write(8, 8);
 5ea:	88 e0       	ldi	r24, 0x08	; 8
 5ec:	90 e0       	ldi	r25, 0x00	; 0
 5ee:	68 e0       	ldi	r22, 0x08	; 8
 5f0:	0e 94 58 02 	call	0x4b0	; 0x4b0 <EEPROM_write>
	EEPROM_write(9, 9);
 5f4:	89 e0       	ldi	r24, 0x09	; 9
 5f6:	90 e0       	ldi	r25, 0x00	; 0
 5f8:	69 e0       	ldi	r22, 0x09	; 9
 5fa:	0e 94 58 02 	call	0x4b0	; 0x4b0 <EEPROM_write>
	//SREG = cSREG;
}

unsigned char EEPROM_read(unsigned int uiAddress){
	/* wait for completion of previous write */
	while(EECR & (1<< EEWE));
 5fe:	e1 99       	sbic	0x1c, 1	; 28
 600:	fe cf       	rjmp	.-4      	; 0x5fe <eeprom_test+0x5a>
	/* Set up address register */
	EEAR = uiAddress;
 602:	81 e0       	ldi	r24, 0x01	; 1
 604:	90 e0       	ldi	r25, 0x00	; 0
 606:	9f bb       	out	0x1f, r25	; 31
 608:	8e bb       	out	0x1e, r24	; 30
	//char cSREG;
	//cSREG = SREG;
	//cli();
	/* Start eeprom read by writing EERE */
	EECR |= (1<< EERE);
 60a:	e0 9a       	sbi	0x1c, 0	; 28
	/* Return data from data register */
	//SREG = cSREG;
	return EEDR;
 60c:	8d b3       	in	r24, 0x1d	; 29
	EEPROM_write(5, 5);
	EEPROM_write(6, 6);
	EEPROM_write(7, 7);
	EEPROM_write(8, 8);
	EEPROM_write(9, 9);
	PORTB = EEPROM_read(1);
 60e:	88 bb       	out	0x18, r24	; 24
 610:	88 e8       	ldi	r24, 0x88	; 136
 612:	93 e1       	ldi	r25, 0x13	; 19
 614:	24 e6       	ldi	r18, 0x64	; 100
 616:	30 e0       	ldi	r19, 0x00	; 0
 618:	f9 01       	movw	r30, r18
 61a:	31 97       	sbiw	r30, 0x01	; 1
 61c:	f1 f7       	brne	.-4      	; 0x61a <eeprom_test+0x76>
		{
			// wait 1/10 ms
			_delay_loop_2(((F_CPU) / 4e3) / 10);
			__ticks --;
 61e:	01 97       	sbiw	r24, 0x01	; 1
		__ticks = 1;
	else if (__tmp > 65535)
	{
		//	__ticks = requested delay in 1/10 ms
		__ticks = (uint16_t) (__ms * 10.0);
		while(__ticks)
 620:	d9 f7       	brne	.-10     	; 0x618 <eeprom_test+0x74>
	//SREG = cSREG;
}

unsigned char EEPROM_read(unsigned int uiAddress){
	/* wait for completion of previous write */
	while(EECR & (1<< EEWE));
 622:	e1 99       	sbic	0x1c, 1	; 28
 624:	fe cf       	rjmp	.-4      	; 0x622 <eeprom_test+0x7e>
	/* Set up address register */
	EEAR = uiAddress;
 626:	82 e0       	ldi	r24, 0x02	; 2
 628:	90 e0       	ldi	r25, 0x00	; 0
 62a:	9f bb       	out	0x1f, r25	; 31
 62c:	8e bb       	out	0x1e, r24	; 30
	//char cSREG;
	//cSREG = SREG;
	//cli();
	/* Start eeprom read by writing EERE */
	EECR |= (1<< EERE);
 62e:	e0 9a       	sbi	0x1c, 0	; 28
	/* Return data from data register */
	//SREG = cSREG;
	return EEDR;
 630:	8d b3       	in	r24, 0x1d	; 29
	EEPROM_write(7, 7);
	EEPROM_write(8, 8);
	EEPROM_write(9, 9);
	PORTB = EEPROM_read(1);
	_delay_ms(500);
	PORTB = EEPROM_read(2);
 632:	88 bb       	out	0x18, r24	; 24
 634:	88 e8       	ldi	r24, 0x88	; 136
 636:	93 e1       	ldi	r25, 0x13	; 19
 638:	24 e6       	ldi	r18, 0x64	; 100
 63a:	30 e0       	ldi	r19, 0x00	; 0
 63c:	f9 01       	movw	r30, r18
 63e:	31 97       	sbiw	r30, 0x01	; 1
 640:	f1 f7       	brne	.-4      	; 0x63e <eeprom_test+0x9a>
		{
			// wait 1/10 ms
			_delay_loop_2(((F_CPU) / 4e3) / 10);
			__ticks --;
 642:	01 97       	sbiw	r24, 0x01	; 1
		__ticks = 1;
	else if (__tmp > 65535)
	{
		//	__ticks = requested delay in 1/10 ms
		__ticks = (uint16_t) (__ms * 10.0);
		while(__ticks)
 644:	d9 f7       	brne	.-10     	; 0x63c <eeprom_test+0x98>
	//SREG = cSREG;
}

unsigned char EEPROM_read(unsigned int uiAddress){
	/* wait for completion of previous write */
	while(EECR & (1<< EEWE));
 646:	e1 99       	sbic	0x1c, 1	; 28
 648:	fe cf       	rjmp	.-4      	; 0x646 <eeprom_test+0xa2>
	/* Set up address register */
	EEAR = uiAddress;
 64a:	83 e0       	ldi	r24, 0x03	; 3
 64c:	90 e0       	ldi	r25, 0x00	; 0
 64e:	9f bb       	out	0x1f, r25	; 31
 650:	8e bb       	out	0x1e, r24	; 30
	//char cSREG;
	//cSREG = SREG;
	//cli();
	/* Start eeprom read by writing EERE */
	EECR |= (1<< EERE);
 652:	e0 9a       	sbi	0x1c, 0	; 28
	/* Return data from data register */
	//SREG = cSREG;
	return EEDR;
 654:	8d b3       	in	r24, 0x1d	; 29
	EEPROM_write(9, 9);
	PORTB = EEPROM_read(1);
	_delay_ms(500);
	PORTB = EEPROM_read(2);
	_delay_ms(500);
	PORTB = EEPROM_read(3);
 656:	88 bb       	out	0x18, r24	; 24
 658:	88 e8       	ldi	r24, 0x88	; 136
 65a:	93 e1       	ldi	r25, 0x13	; 19
 65c:	24 e6       	ldi	r18, 0x64	; 100
 65e:	30 e0       	ldi	r19, 0x00	; 0
 660:	f9 01       	movw	r30, r18
 662:	31 97       	sbiw	r30, 0x01	; 1
 664:	f1 f7       	brne	.-4      	; 0x662 <eeprom_test+0xbe>
		{
			// wait 1/10 ms
			_delay_loop_2(((F_CPU) / 4e3) / 10);
			__ticks --;
 666:	01 97       	sbiw	r24, 0x01	; 1
		__ticks = 1;
	else if (__tmp > 65535)
	{
		//	__ticks = requested delay in 1/10 ms
		__ticks = (uint16_t) (__ms * 10.0);
		while(__ticks)
 668:	d9 f7       	brne	.-10     	; 0x660 <eeprom_test+0xbc>
	//SREG = cSREG;
}

unsigned char EEPROM_read(unsigned int uiAddress){
	/* wait for completion of previous write */
	while(EECR & (1<< EEWE));
 66a:	e1 99       	sbic	0x1c, 1	; 28
 66c:	fe cf       	rjmp	.-4      	; 0x66a <eeprom_test+0xc6>
	/* Set up address register */
	EEAR = uiAddress;
 66e:	84 e0       	ldi	r24, 0x04	; 4
 670:	90 e0       	ldi	r25, 0x00	; 0
 672:	9f bb       	out	0x1f, r25	; 31
 674:	8e bb       	out	0x1e, r24	; 30
	//char cSREG;
	//cSREG = SREG;
	//cli();
	/* Start eeprom read by writing EERE */
	EECR |= (1<< EERE);
 676:	e0 9a       	sbi	0x1c, 0	; 28
	/* Return data from data register */
	//SREG = cSREG;
	return EEDR;
 678:	8d b3       	in	r24, 0x1d	; 29
	_delay_ms(500);
	PORTB = EEPROM_read(2);
	_delay_ms(500);
	PORTB = EEPROM_read(3);
	_delay_ms(500);
	PORTB = EEPROM_read(4);
 67a:	88 bb       	out	0x18, r24	; 24
 67c:	88 e8       	ldi	r24, 0x88	; 136
 67e:	93 e1       	ldi	r25, 0x13	; 19
 680:	24 e6       	ldi	r18, 0x64	; 100
 682:	30 e0       	ldi	r19, 0x00	; 0
 684:	f9 01       	movw	r30, r18
 686:	31 97       	sbiw	r30, 0x01	; 1
 688:	f1 f7       	brne	.-4      	; 0x686 <eeprom_test+0xe2>
		{
			// wait 1/10 ms
			_delay_loop_2(((F_CPU) / 4e3) / 10);
			__ticks --;
 68a:	01 97       	sbiw	r24, 0x01	; 1
		__ticks = 1;
	else if (__tmp > 65535)
	{
		//	__ticks = requested delay in 1/10 ms
		__ticks = (uint16_t) (__ms * 10.0);
		while(__ticks)
 68c:	d9 f7       	brne	.-10     	; 0x684 <eeprom_test+0xe0>
	//SREG = cSREG;
}

unsigned char EEPROM_read(unsigned int uiAddress){
	/* wait for completion of previous write */
	while(EECR & (1<< EEWE));
 68e:	e1 99       	sbic	0x1c, 1	; 28
 690:	fe cf       	rjmp	.-4      	; 0x68e <eeprom_test+0xea>
	/* Set up address register */
	EEAR = uiAddress;
 692:	85 e0       	ldi	r24, 0x05	; 5
 694:	90 e0       	ldi	r25, 0x00	; 0
 696:	9f bb       	out	0x1f, r25	; 31
 698:	8e bb       	out	0x1e, r24	; 30
	//char cSREG;
	//cSREG = SREG;
	//cli();
	/* Start eeprom read by writing EERE */
	EECR |= (1<< EERE);
 69a:	e0 9a       	sbi	0x1c, 0	; 28
	/* Return data from data register */
	//SREG = cSREG;
	return EEDR;
 69c:	8d b3       	in	r24, 0x1d	; 29
	_delay_ms(500);
	PORTB = EEPROM_read(3);
	_delay_ms(500);
	PORTB = EEPROM_read(4);
	_delay_ms(500);
	PORTB = EEPROM_read(5);
 69e:	88 bb       	out	0x18, r24	; 24
 6a0:	88 e8       	ldi	r24, 0x88	; 136
 6a2:	93 e1       	ldi	r25, 0x13	; 19
 6a4:	24 e6       	ldi	r18, 0x64	; 100
 6a6:	30 e0       	ldi	r19, 0x00	; 0
 6a8:	f9 01       	movw	r30, r18
 6aa:	31 97       	sbiw	r30, 0x01	; 1
 6ac:	f1 f7       	brne	.-4      	; 0x6aa <eeprom_test+0x106>
		{
			// wait 1/10 ms
			_delay_loop_2(((F_CPU) / 4e3) / 10);
			__ticks --;
 6ae:	01 97       	sbiw	r24, 0x01	; 1
		__ticks = 1;
	else if (__tmp > 65535)
	{
		//	__ticks = requested delay in 1/10 ms
		__ticks = (uint16_t) (__ms * 10.0);
		while(__ticks)
 6b0:	d9 f7       	brne	.-10     	; 0x6a8 <eeprom_test+0x104>
	//SREG = cSREG;
}

unsigned char EEPROM_read(unsigned int uiAddress){
	/* wait for completion of previous write */
	while(EECR & (1<< EEWE));
 6b2:	e1 99       	sbic	0x1c, 1	; 28
 6b4:	fe cf       	rjmp	.-4      	; 0x6b2 <eeprom_test+0x10e>
	/* Set up address register */
	EEAR = uiAddress;
 6b6:	86 e0       	ldi	r24, 0x06	; 6
 6b8:	90 e0       	ldi	r25, 0x00	; 0
 6ba:	9f bb       	out	0x1f, r25	; 31
 6bc:	8e bb       	out	0x1e, r24	; 30
	//char cSREG;
	//cSREG = SREG;
	//cli();
	/* Start eeprom read by writing EERE */
	EECR |= (1<< EERE);
 6be:	e0 9a       	sbi	0x1c, 0	; 28
	/* Return data from data register */
	//SREG = cSREG;
	return EEDR;
 6c0:	8d b3       	in	r24, 0x1d	; 29
	_delay_ms(500);
	PORTB = EEPROM_read(4);
	_delay_ms(500);
	PORTB = EEPROM_read(5);
	_delay_ms(500);
	PORTB = EEPROM_read(6);
 6c2:	88 bb       	out	0x18, r24	; 24
 6c4:	88 e8       	ldi	r24, 0x88	; 136
 6c6:	93 e1       	ldi	r25, 0x13	; 19
 6c8:	24 e6       	ldi	r18, 0x64	; 100
 6ca:	30 e0       	ldi	r19, 0x00	; 0
 6cc:	f9 01       	movw	r30, r18
 6ce:	31 97       	sbiw	r30, 0x01	; 1
 6d0:	f1 f7       	brne	.-4      	; 0x6ce <eeprom_test+0x12a>
		{
			// wait 1/10 ms
			_delay_loop_2(((F_CPU) / 4e3) / 10);
			__ticks --;
 6d2:	01 97       	sbiw	r24, 0x01	; 1
		__ticks = 1;
	else if (__tmp > 65535)
	{
		//	__ticks = requested delay in 1/10 ms
		__ticks = (uint16_t) (__ms * 10.0);
		while(__ticks)
 6d4:	d9 f7       	brne	.-10     	; 0x6cc <eeprom_test+0x128>
	//SREG = cSREG;
}

unsigned char EEPROM_read(unsigned int uiAddress){
	/* wait for completion of previous write */
	while(EECR & (1<< EEWE));
 6d6:	e1 99       	sbic	0x1c, 1	; 28
 6d8:	fe cf       	rjmp	.-4      	; 0x6d6 <eeprom_test+0x132>
	/* Set up address register */
	EEAR = uiAddress;
 6da:	87 e0       	ldi	r24, 0x07	; 7
 6dc:	90 e0       	ldi	r25, 0x00	; 0
 6de:	9f bb       	out	0x1f, r25	; 31
 6e0:	8e bb       	out	0x1e, r24	; 30
	//char cSREG;
	//cSREG = SREG;
	//cli();
	/* Start eeprom read by writing EERE */
	EECR |= (1<< EERE);
 6e2:	e0 9a       	sbi	0x1c, 0	; 28
	/* Return data from data register */
	//SREG = cSREG;
	return EEDR;
 6e4:	8d b3       	in	r24, 0x1d	; 29
	_delay_ms(500);
	PORTB = EEPROM_read(5);
	_delay_ms(500);
	PORTB = EEPROM_read(6);
	_delay_ms(500);
	PORTB = EEPROM_read(7);
 6e6:	88 bb       	out	0x18, r24	; 24
 6e8:	88 e8       	ldi	r24, 0x88	; 136
 6ea:	93 e1       	ldi	r25, 0x13	; 19
 6ec:	24 e6       	ldi	r18, 0x64	; 100
 6ee:	30 e0       	ldi	r19, 0x00	; 0
 6f0:	f9 01       	movw	r30, r18
 6f2:	31 97       	sbiw	r30, 0x01	; 1
 6f4:	f1 f7       	brne	.-4      	; 0x6f2 <eeprom_test+0x14e>
		{
			// wait 1/10 ms
			_delay_loop_2(((F_CPU) / 4e3) / 10);
			__ticks --;
 6f6:	01 97       	sbiw	r24, 0x01	; 1
		__ticks = 1;
	else if (__tmp > 65535)
	{
		//	__ticks = requested delay in 1/10 ms
		__ticks = (uint16_t) (__ms * 10.0);
		while(__ticks)
 6f8:	d9 f7       	brne	.-10     	; 0x6f0 <eeprom_test+0x14c>
	//SREG = cSREG;
}

unsigned char EEPROM_read(unsigned int uiAddress){
	/* wait for completion of previous write */
	while(EECR & (1<< EEWE));
 6fa:	e1 99       	sbic	0x1c, 1	; 28
 6fc:	fe cf       	rjmp	.-4      	; 0x6fa <eeprom_test+0x156>
	/* Set up address register */
	EEAR = uiAddress;
 6fe:	88 e0       	ldi	r24, 0x08	; 8
 700:	90 e0       	ldi	r25, 0x00	; 0
 702:	9f bb       	out	0x1f, r25	; 31
 704:	8e bb       	out	0x1e, r24	; 30
	//char cSREG;
	//cSREG = SREG;
	//cli();
	/* Start eeprom read by writing EERE */
	EECR |= (1<< EERE);
 706:	e0 9a       	sbi	0x1c, 0	; 28
	/* Return data from data register */
	//SREG = cSREG;
	return EEDR;
 708:	8d b3       	in	r24, 0x1d	; 29
	_delay_ms(500);
	PORTB = EEPROM_read(6);
	_delay_ms(500);
	PORTB = EEPROM_read(7);
	_delay_ms(500);
	PORTB = EEPROM_read(8);
 70a:	88 bb       	out	0x18, r24	; 24
 70c:	88 e8       	ldi	r24, 0x88	; 136
 70e:	93 e1       	ldi	r25, 0x13	; 19
 710:	24 e6       	ldi	r18, 0x64	; 100
 712:	30 e0       	ldi	r19, 0x00	; 0
 714:	f9 01       	movw	r30, r18
 716:	31 97       	sbiw	r30, 0x01	; 1
 718:	f1 f7       	brne	.-4      	; 0x716 <eeprom_test+0x172>
		{
			// wait 1/10 ms
			_delay_loop_2(((F_CPU) / 4e3) / 10);
			__ticks --;
 71a:	01 97       	sbiw	r24, 0x01	; 1
		__ticks = 1;
	else if (__tmp > 65535)
	{
		//	__ticks = requested delay in 1/10 ms
		__ticks = (uint16_t) (__ms * 10.0);
		while(__ticks)
 71c:	d9 f7       	brne	.-10     	; 0x714 <eeprom_test+0x170>
	//SREG = cSREG;
}

unsigned char EEPROM_read(unsigned int uiAddress){
	/* wait for completion of previous write */
	while(EECR & (1<< EEWE));
 71e:	e1 99       	sbic	0x1c, 1	; 28
 720:	fe cf       	rjmp	.-4      	; 0x71e <eeprom_test+0x17a>
	/* Set up address register */
	EEAR = uiAddress;
 722:	89 e0       	ldi	r24, 0x09	; 9
 724:	90 e0       	ldi	r25, 0x00	; 0
 726:	9f bb       	out	0x1f, r25	; 31
 728:	8e bb       	out	0x1e, r24	; 30
	//char cSREG;
	//cSREG = SREG;
	//cli();
	/* Start eeprom read by writing EERE */
	EECR |= (1<< EERE);
 72a:	e0 9a       	sbi	0x1c, 0	; 28
	/* Return data from data register */
	//SREG = cSREG;
	return EEDR;
 72c:	8d b3       	in	r24, 0x1d	; 29
	_delay_ms(500);
	PORTB = EEPROM_read(7);
	_delay_ms(500);
	PORTB = EEPROM_read(8);
	_delay_ms(500);
	PORTB = EEPROM_read(9);
 72e:	88 bb       	out	0x18, r24	; 24
 730:	88 e8       	ldi	r24, 0x88	; 136
 732:	93 e1       	ldi	r25, 0x13	; 19
 734:	24 e6       	ldi	r18, 0x64	; 100
 736:	30 e0       	ldi	r19, 0x00	; 0
 738:	f9 01       	movw	r30, r18
 73a:	31 97       	sbiw	r30, 0x01	; 1
 73c:	f1 f7       	brne	.-4      	; 0x73a <eeprom_test+0x196>
		{
			// wait 1/10 ms
			_delay_loop_2(((F_CPU) / 4e3) / 10);
			__ticks --;
 73e:	01 97       	sbiw	r24, 0x01	; 1
		__ticks = 1;
	else if (__tmp > 65535)
	{
		//	__ticks = requested delay in 1/10 ms
		__ticks = (uint16_t) (__ms * 10.0);
		while(__ticks)
 740:	d9 f7       	brne	.-10     	; 0x738 <eeprom_test+0x194>
	_delay_ms(500);
}
 742:	08 95       	ret

00000744 <EEPROM_read>:
	//SREG = cSREG;
}

unsigned char EEPROM_read(unsigned int uiAddress){
	/* wait for completion of previous write */
	while(EECR & (1<< EEWE));
 744:	e1 99       	sbic	0x1c, 1	; 28
 746:	fe cf       	rjmp	.-4      	; 0x744 <EEPROM_read>
	/* Set up address register */
	EEAR = uiAddress;
 748:	9f bb       	out	0x1f, r25	; 31
 74a:	8e bb       	out	0x1e, r24	; 30
	//char cSREG;
	//cSREG = SREG;
	//cli();
	/* Start eeprom read by writing EERE */
	EECR |= (1<< EERE);
 74c:	e0 9a       	sbi	0x1c, 0	; 28
	/* Return data from data register */
	//SREG = cSREG;
	return EEDR;
 74e:	8d b3       	in	r24, 0x1d	; 29
}
 750:	08 95       	ret

00000752 <__vector_8>:

/***** Timer Interrupts *****/

ISR(TIMER1_COMPB_vect){
 752:	1f 92       	push	r1
 754:	0f 92       	push	r0
 756:	0f b6       	in	r0, 0x3f	; 63
 758:	0f 92       	push	r0
 75a:	11 24       	eor	r1, r1
	PORTB = 0x00; // blink
 75c:	18 ba       	out	0x18, r1	; 24
	 //Reset timer
 75e:	0f 90       	pop	r0
 760:	0f be       	out	0x3f, r0	; 63
 762:	0f 90       	pop	r0
 764:	1f 90       	pop	r1
 766:	18 95       	reti

00000768 <__mulsf3>:
 768:	a0 e2       	ldi	r26, 0x20	; 32
 76a:	b0 e0       	ldi	r27, 0x00	; 0
 76c:	ea eb       	ldi	r30, 0xBA	; 186
 76e:	f3 e0       	ldi	r31, 0x03	; 3
 770:	0c 94 4c 07 	jmp	0xe98	; 0xe98 <__prologue_saves__>
 774:	69 83       	std	Y+1, r22	; 0x01
 776:	7a 83       	std	Y+2, r23	; 0x02
 778:	8b 83       	std	Y+3, r24	; 0x03
 77a:	9c 83       	std	Y+4, r25	; 0x04
 77c:	2d 83       	std	Y+5, r18	; 0x05
 77e:	3e 83       	std	Y+6, r19	; 0x06
 780:	4f 83       	std	Y+7, r20	; 0x07
 782:	58 87       	std	Y+8, r21	; 0x08
 784:	ce 01       	movw	r24, r28
 786:	01 96       	adiw	r24, 0x01	; 1
 788:	be 01       	movw	r22, r28
 78a:	67 5f       	subi	r22, 0xF7	; 247
 78c:	7f 4f       	sbci	r23, 0xFF	; 255
 78e:	0e 94 7b 06 	call	0xcf6	; 0xcf6 <__unpack_f>
 792:	ce 01       	movw	r24, r28
 794:	05 96       	adiw	r24, 0x05	; 5
 796:	be 01       	movw	r22, r28
 798:	6f 5e       	subi	r22, 0xEF	; 239
 79a:	7f 4f       	sbci	r23, 0xFF	; 255
 79c:	0e 94 7b 06 	call	0xcf6	; 0xcf6 <__unpack_f>
 7a0:	99 85       	ldd	r25, Y+9	; 0x09
 7a2:	92 30       	cpi	r25, 0x02	; 2
 7a4:	88 f0       	brcs	.+34     	; 0x7c8 <__mulsf3+0x60>
 7a6:	89 89       	ldd	r24, Y+17	; 0x11
 7a8:	82 30       	cpi	r24, 0x02	; 2
 7aa:	c8 f0       	brcs	.+50     	; 0x7de <__mulsf3+0x76>
 7ac:	94 30       	cpi	r25, 0x04	; 4
 7ae:	19 f4       	brne	.+6      	; 0x7b6 <__mulsf3+0x4e>
 7b0:	82 30       	cpi	r24, 0x02	; 2
 7b2:	51 f4       	brne	.+20     	; 0x7c8 <__mulsf3+0x60>
 7b4:	04 c0       	rjmp	.+8      	; 0x7be <__mulsf3+0x56>
 7b6:	84 30       	cpi	r24, 0x04	; 4
 7b8:	29 f4       	brne	.+10     	; 0x7c4 <__mulsf3+0x5c>
 7ba:	92 30       	cpi	r25, 0x02	; 2
 7bc:	81 f4       	brne	.+32     	; 0x7de <__mulsf3+0x76>
 7be:	80 e6       	ldi	r24, 0x60	; 96
 7c0:	90 e0       	ldi	r25, 0x00	; 0
 7c2:	c6 c0       	rjmp	.+396    	; 0x950 <__stack+0xf1>
 7c4:	92 30       	cpi	r25, 0x02	; 2
 7c6:	49 f4       	brne	.+18     	; 0x7da <__mulsf3+0x72>
 7c8:	20 e0       	ldi	r18, 0x00	; 0
 7ca:	9a 85       	ldd	r25, Y+10	; 0x0a
 7cc:	8a 89       	ldd	r24, Y+18	; 0x12
 7ce:	98 13       	cpse	r25, r24
 7d0:	21 e0       	ldi	r18, 0x01	; 1
 7d2:	2a 87       	std	Y+10, r18	; 0x0a
 7d4:	ce 01       	movw	r24, r28
 7d6:	09 96       	adiw	r24, 0x09	; 9
 7d8:	bb c0       	rjmp	.+374    	; 0x950 <__stack+0xf1>
 7da:	82 30       	cpi	r24, 0x02	; 2
 7dc:	49 f4       	brne	.+18     	; 0x7f0 <__mulsf3+0x88>
 7de:	20 e0       	ldi	r18, 0x00	; 0
 7e0:	9a 85       	ldd	r25, Y+10	; 0x0a
 7e2:	8a 89       	ldd	r24, Y+18	; 0x12
 7e4:	98 13       	cpse	r25, r24
 7e6:	21 e0       	ldi	r18, 0x01	; 1
 7e8:	2a 8b       	std	Y+18, r18	; 0x12
 7ea:	ce 01       	movw	r24, r28
 7ec:	41 96       	adiw	r24, 0x11	; 17
 7ee:	b0 c0       	rjmp	.+352    	; 0x950 <__stack+0xf1>
 7f0:	2d 84       	ldd	r2, Y+13	; 0x0d
 7f2:	3e 84       	ldd	r3, Y+14	; 0x0e
 7f4:	4f 84       	ldd	r4, Y+15	; 0x0f
 7f6:	58 88       	ldd	r5, Y+16	; 0x10
 7f8:	6d 88       	ldd	r6, Y+21	; 0x15
 7fa:	7e 88       	ldd	r7, Y+22	; 0x16
 7fc:	8f 88       	ldd	r8, Y+23	; 0x17
 7fe:	98 8c       	ldd	r9, Y+24	; 0x18
 800:	ee 24       	eor	r14, r14
 802:	ff 24       	eor	r15, r15
 804:	87 01       	movw	r16, r14
 806:	aa 24       	eor	r10, r10
 808:	bb 24       	eor	r11, r11
 80a:	65 01       	movw	r12, r10
 80c:	40 e0       	ldi	r20, 0x00	; 0
 80e:	50 e0       	ldi	r21, 0x00	; 0
 810:	60 e0       	ldi	r22, 0x00	; 0
 812:	70 e0       	ldi	r23, 0x00	; 0
 814:	e0 e0       	ldi	r30, 0x00	; 0
 816:	f0 e0       	ldi	r31, 0x00	; 0
 818:	c1 01       	movw	r24, r2
 81a:	81 70       	andi	r24, 0x01	; 1
 81c:	90 70       	andi	r25, 0x00	; 0
 81e:	89 2b       	or	r24, r25
 820:	e9 f0       	breq	.+58     	; 0x85c <__mulsf3+0xf4>
 822:	e6 0c       	add	r14, r6
 824:	f7 1c       	adc	r15, r7
 826:	08 1d       	adc	r16, r8
 828:	19 1d       	adc	r17, r9
 82a:	9a 01       	movw	r18, r20
 82c:	ab 01       	movw	r20, r22
 82e:	2a 0d       	add	r18, r10
 830:	3b 1d       	adc	r19, r11
 832:	4c 1d       	adc	r20, r12
 834:	5d 1d       	adc	r21, r13
 836:	80 e0       	ldi	r24, 0x00	; 0
 838:	90 e0       	ldi	r25, 0x00	; 0
 83a:	a0 e0       	ldi	r26, 0x00	; 0
 83c:	b0 e0       	ldi	r27, 0x00	; 0
 83e:	e6 14       	cp	r14, r6
 840:	f7 04       	cpc	r15, r7
 842:	08 05       	cpc	r16, r8
 844:	19 05       	cpc	r17, r9
 846:	20 f4       	brcc	.+8      	; 0x850 <__mulsf3+0xe8>
 848:	81 e0       	ldi	r24, 0x01	; 1
 84a:	90 e0       	ldi	r25, 0x00	; 0
 84c:	a0 e0       	ldi	r26, 0x00	; 0
 84e:	b0 e0       	ldi	r27, 0x00	; 0
 850:	ba 01       	movw	r22, r20
 852:	a9 01       	movw	r20, r18
 854:	48 0f       	add	r20, r24
 856:	59 1f       	adc	r21, r25
 858:	6a 1f       	adc	r22, r26
 85a:	7b 1f       	adc	r23, r27
 85c:	aa 0c       	add	r10, r10
 85e:	bb 1c       	adc	r11, r11
 860:	cc 1c       	adc	r12, r12
 862:	dd 1c       	adc	r13, r13
 864:	97 fe       	sbrs	r9, 7
 866:	08 c0       	rjmp	.+16     	; 0x878 <__stack+0x19>
 868:	81 e0       	ldi	r24, 0x01	; 1
 86a:	90 e0       	ldi	r25, 0x00	; 0
 86c:	a0 e0       	ldi	r26, 0x00	; 0
 86e:	b0 e0       	ldi	r27, 0x00	; 0
 870:	a8 2a       	or	r10, r24
 872:	b9 2a       	or	r11, r25
 874:	ca 2a       	or	r12, r26
 876:	db 2a       	or	r13, r27
 878:	31 96       	adiw	r30, 0x01	; 1
 87a:	e0 32       	cpi	r30, 0x20	; 32
 87c:	f1 05       	cpc	r31, r1
 87e:	49 f0       	breq	.+18     	; 0x892 <__stack+0x33>
 880:	66 0c       	add	r6, r6
 882:	77 1c       	adc	r7, r7
 884:	88 1c       	adc	r8, r8
 886:	99 1c       	adc	r9, r9
 888:	56 94       	lsr	r5
 88a:	47 94       	ror	r4
 88c:	37 94       	ror	r3
 88e:	27 94       	ror	r2
 890:	c3 cf       	rjmp	.-122    	; 0x818 <__mulsf3+0xb0>
 892:	fa 85       	ldd	r31, Y+10	; 0x0a
 894:	ea 89       	ldd	r30, Y+18	; 0x12
 896:	2b 89       	ldd	r18, Y+19	; 0x13
 898:	3c 89       	ldd	r19, Y+20	; 0x14
 89a:	8b 85       	ldd	r24, Y+11	; 0x0b
 89c:	9c 85       	ldd	r25, Y+12	; 0x0c
 89e:	28 0f       	add	r18, r24
 8a0:	39 1f       	adc	r19, r25
 8a2:	2e 5f       	subi	r18, 0xFE	; 254
 8a4:	3f 4f       	sbci	r19, 0xFF	; 255
 8a6:	17 c0       	rjmp	.+46     	; 0x8d6 <__stack+0x77>
 8a8:	ca 01       	movw	r24, r20
 8aa:	81 70       	andi	r24, 0x01	; 1
 8ac:	90 70       	andi	r25, 0x00	; 0
 8ae:	89 2b       	or	r24, r25
 8b0:	61 f0       	breq	.+24     	; 0x8ca <__stack+0x6b>
 8b2:	16 95       	lsr	r17
 8b4:	07 95       	ror	r16
 8b6:	f7 94       	ror	r15
 8b8:	e7 94       	ror	r14
 8ba:	80 e0       	ldi	r24, 0x00	; 0
 8bc:	90 e0       	ldi	r25, 0x00	; 0
 8be:	a0 e0       	ldi	r26, 0x00	; 0
 8c0:	b0 e8       	ldi	r27, 0x80	; 128
 8c2:	e8 2a       	or	r14, r24
 8c4:	f9 2a       	or	r15, r25
 8c6:	0a 2b       	or	r16, r26
 8c8:	1b 2b       	or	r17, r27
 8ca:	76 95       	lsr	r23
 8cc:	67 95       	ror	r22
 8ce:	57 95       	ror	r21
 8d0:	47 95       	ror	r20
 8d2:	2f 5f       	subi	r18, 0xFF	; 255
 8d4:	3f 4f       	sbci	r19, 0xFF	; 255
 8d6:	77 fd       	sbrc	r23, 7
 8d8:	e7 cf       	rjmp	.-50     	; 0x8a8 <__stack+0x49>
 8da:	0c c0       	rjmp	.+24     	; 0x8f4 <__stack+0x95>
 8dc:	44 0f       	add	r20, r20
 8de:	55 1f       	adc	r21, r21
 8e0:	66 1f       	adc	r22, r22
 8e2:	77 1f       	adc	r23, r23
 8e4:	17 fd       	sbrc	r17, 7
 8e6:	41 60       	ori	r20, 0x01	; 1
 8e8:	ee 0c       	add	r14, r14
 8ea:	ff 1c       	adc	r15, r15
 8ec:	00 1f       	adc	r16, r16
 8ee:	11 1f       	adc	r17, r17
 8f0:	21 50       	subi	r18, 0x01	; 1
 8f2:	30 40       	sbci	r19, 0x00	; 0
 8f4:	40 30       	cpi	r20, 0x00	; 0
 8f6:	90 e0       	ldi	r25, 0x00	; 0
 8f8:	59 07       	cpc	r21, r25
 8fa:	90 e0       	ldi	r25, 0x00	; 0
 8fc:	69 07       	cpc	r22, r25
 8fe:	90 e4       	ldi	r25, 0x40	; 64
 900:	79 07       	cpc	r23, r25
 902:	60 f3       	brcs	.-40     	; 0x8dc <__stack+0x7d>
 904:	2b 8f       	std	Y+27, r18	; 0x1b
 906:	3c 8f       	std	Y+28, r19	; 0x1c
 908:	db 01       	movw	r26, r22
 90a:	ca 01       	movw	r24, r20
 90c:	8f 77       	andi	r24, 0x7F	; 127
 90e:	90 70       	andi	r25, 0x00	; 0
 910:	a0 70       	andi	r26, 0x00	; 0
 912:	b0 70       	andi	r27, 0x00	; 0
 914:	80 34       	cpi	r24, 0x40	; 64
 916:	91 05       	cpc	r25, r1
 918:	a1 05       	cpc	r26, r1
 91a:	b1 05       	cpc	r27, r1
 91c:	61 f4       	brne	.+24     	; 0x936 <__stack+0xd7>
 91e:	47 fd       	sbrc	r20, 7
 920:	0a c0       	rjmp	.+20     	; 0x936 <__stack+0xd7>
 922:	e1 14       	cp	r14, r1
 924:	f1 04       	cpc	r15, r1
 926:	01 05       	cpc	r16, r1
 928:	11 05       	cpc	r17, r1
 92a:	29 f0       	breq	.+10     	; 0x936 <__stack+0xd7>
 92c:	40 5c       	subi	r20, 0xC0	; 192
 92e:	5f 4f       	sbci	r21, 0xFF	; 255
 930:	6f 4f       	sbci	r22, 0xFF	; 255
 932:	7f 4f       	sbci	r23, 0xFF	; 255
 934:	40 78       	andi	r20, 0x80	; 128
 936:	1a 8e       	std	Y+26, r1	; 0x1a
 938:	fe 17       	cp	r31, r30
 93a:	11 f0       	breq	.+4      	; 0x940 <__stack+0xe1>
 93c:	81 e0       	ldi	r24, 0x01	; 1
 93e:	8a 8f       	std	Y+26, r24	; 0x1a
 940:	4d 8f       	std	Y+29, r20	; 0x1d
 942:	5e 8f       	std	Y+30, r21	; 0x1e
 944:	6f 8f       	std	Y+31, r22	; 0x1f
 946:	78 a3       	std	Y+32, r23	; 0x20
 948:	83 e0       	ldi	r24, 0x03	; 3
 94a:	89 8f       	std	Y+25, r24	; 0x19
 94c:	ce 01       	movw	r24, r28
 94e:	49 96       	adiw	r24, 0x19	; 25
 950:	0e 94 a6 05 	call	0xb4c	; 0xb4c <__pack_f>
 954:	a0 96       	adiw	r28, 0x20	; 32
 956:	e2 e1       	ldi	r30, 0x12	; 18
 958:	0c 94 68 07 	jmp	0xed0	; 0xed0 <__epilogue_restores__>

0000095c <__ltsf2>:
 95c:	a8 e1       	ldi	r26, 0x18	; 24
 95e:	b0 e0       	ldi	r27, 0x00	; 0
 960:	e4 eb       	ldi	r30, 0xB4	; 180
 962:	f4 e0       	ldi	r31, 0x04	; 4
 964:	0c 94 58 07 	jmp	0xeb0	; 0xeb0 <__prologue_saves__+0x18>
 968:	69 83       	std	Y+1, r22	; 0x01
 96a:	7a 83       	std	Y+2, r23	; 0x02
 96c:	8b 83       	std	Y+3, r24	; 0x03
 96e:	9c 83       	std	Y+4, r25	; 0x04
 970:	2d 83       	std	Y+5, r18	; 0x05
 972:	3e 83       	std	Y+6, r19	; 0x06
 974:	4f 83       	std	Y+7, r20	; 0x07
 976:	58 87       	std	Y+8, r21	; 0x08
 978:	89 e0       	ldi	r24, 0x09	; 9
 97a:	e8 2e       	mov	r14, r24
 97c:	f1 2c       	mov	r15, r1
 97e:	ec 0e       	add	r14, r28
 980:	fd 1e       	adc	r15, r29
 982:	ce 01       	movw	r24, r28
 984:	01 96       	adiw	r24, 0x01	; 1
 986:	b7 01       	movw	r22, r14
 988:	0e 94 7b 06 	call	0xcf6	; 0xcf6 <__unpack_f>
 98c:	8e 01       	movw	r16, r28
 98e:	0f 5e       	subi	r16, 0xEF	; 239
 990:	1f 4f       	sbci	r17, 0xFF	; 255
 992:	ce 01       	movw	r24, r28
 994:	05 96       	adiw	r24, 0x05	; 5
 996:	b8 01       	movw	r22, r16
 998:	0e 94 7b 06 	call	0xcf6	; 0xcf6 <__unpack_f>
 99c:	89 85       	ldd	r24, Y+9	; 0x09
 99e:	82 30       	cpi	r24, 0x02	; 2
 9a0:	40 f0       	brcs	.+16     	; 0x9b2 <__ltsf2+0x56>
 9a2:	89 89       	ldd	r24, Y+17	; 0x11
 9a4:	82 30       	cpi	r24, 0x02	; 2
 9a6:	28 f0       	brcs	.+10     	; 0x9b2 <__ltsf2+0x56>
 9a8:	c7 01       	movw	r24, r14
 9aa:	b8 01       	movw	r22, r16
 9ac:	0e 94 f3 06 	call	0xde6	; 0xde6 <__fpcmp_parts_f>
 9b0:	01 c0       	rjmp	.+2      	; 0x9b4 <__ltsf2+0x58>
 9b2:	81 e0       	ldi	r24, 0x01	; 1
 9b4:	68 96       	adiw	r28, 0x18	; 24
 9b6:	e6 e0       	ldi	r30, 0x06	; 6
 9b8:	0c 94 74 07 	jmp	0xee8	; 0xee8 <__epilogue_restores__+0x18>

000009bc <__floatunsisf>:
 9bc:	a8 e0       	ldi	r26, 0x08	; 8
 9be:	b0 e0       	ldi	r27, 0x00	; 0
 9c0:	e4 ee       	ldi	r30, 0xE4	; 228
 9c2:	f4 e0       	ldi	r31, 0x04	; 4
 9c4:	0c 94 54 07 	jmp	0xea8	; 0xea8 <__prologue_saves__+0x10>
 9c8:	7b 01       	movw	r14, r22
 9ca:	8c 01       	movw	r16, r24
 9cc:	61 15       	cp	r22, r1
 9ce:	71 05       	cpc	r23, r1
 9d0:	81 05       	cpc	r24, r1
 9d2:	91 05       	cpc	r25, r1
 9d4:	19 f4       	brne	.+6      	; 0x9dc <__floatunsisf+0x20>
 9d6:	82 e0       	ldi	r24, 0x02	; 2
 9d8:	89 83       	std	Y+1, r24	; 0x01
 9da:	60 c0       	rjmp	.+192    	; 0xa9c <__floatunsisf+0xe0>
 9dc:	83 e0       	ldi	r24, 0x03	; 3
 9de:	89 83       	std	Y+1, r24	; 0x01
 9e0:	8e e1       	ldi	r24, 0x1E	; 30
 9e2:	c8 2e       	mov	r12, r24
 9e4:	d1 2c       	mov	r13, r1
 9e6:	dc 82       	std	Y+4, r13	; 0x04
 9e8:	cb 82       	std	Y+3, r12	; 0x03
 9ea:	ed 82       	std	Y+5, r14	; 0x05
 9ec:	fe 82       	std	Y+6, r15	; 0x06
 9ee:	0f 83       	std	Y+7, r16	; 0x07
 9f0:	18 87       	std	Y+8, r17	; 0x08
 9f2:	c8 01       	movw	r24, r16
 9f4:	b7 01       	movw	r22, r14
 9f6:	0e 94 57 05 	call	0xaae	; 0xaae <__clzsi2>
 9fa:	fc 01       	movw	r30, r24
 9fc:	31 97       	sbiw	r30, 0x01	; 1
 9fe:	f7 ff       	sbrs	r31, 7
 a00:	3b c0       	rjmp	.+118    	; 0xa78 <__floatunsisf+0xbc>
 a02:	22 27       	eor	r18, r18
 a04:	33 27       	eor	r19, r19
 a06:	2e 1b       	sub	r18, r30
 a08:	3f 0b       	sbc	r19, r31
 a0a:	57 01       	movw	r10, r14
 a0c:	68 01       	movw	r12, r16
 a0e:	02 2e       	mov	r0, r18
 a10:	04 c0       	rjmp	.+8      	; 0xa1a <__floatunsisf+0x5e>
 a12:	d6 94       	lsr	r13
 a14:	c7 94       	ror	r12
 a16:	b7 94       	ror	r11
 a18:	a7 94       	ror	r10
 a1a:	0a 94       	dec	r0
 a1c:	d2 f7       	brpl	.-12     	; 0xa12 <__floatunsisf+0x56>
 a1e:	40 e0       	ldi	r20, 0x00	; 0
 a20:	50 e0       	ldi	r21, 0x00	; 0
 a22:	60 e0       	ldi	r22, 0x00	; 0
 a24:	70 e0       	ldi	r23, 0x00	; 0
 a26:	81 e0       	ldi	r24, 0x01	; 1
 a28:	90 e0       	ldi	r25, 0x00	; 0
 a2a:	a0 e0       	ldi	r26, 0x00	; 0
 a2c:	b0 e0       	ldi	r27, 0x00	; 0
 a2e:	04 c0       	rjmp	.+8      	; 0xa38 <__floatunsisf+0x7c>
 a30:	88 0f       	add	r24, r24
 a32:	99 1f       	adc	r25, r25
 a34:	aa 1f       	adc	r26, r26
 a36:	bb 1f       	adc	r27, r27
 a38:	2a 95       	dec	r18
 a3a:	d2 f7       	brpl	.-12     	; 0xa30 <__floatunsisf+0x74>
 a3c:	01 97       	sbiw	r24, 0x01	; 1
 a3e:	a1 09       	sbc	r26, r1
 a40:	b1 09       	sbc	r27, r1
 a42:	8e 21       	and	r24, r14
 a44:	9f 21       	and	r25, r15
 a46:	a0 23       	and	r26, r16
 a48:	b1 23       	and	r27, r17
 a4a:	00 97       	sbiw	r24, 0x00	; 0
 a4c:	a1 05       	cpc	r26, r1
 a4e:	b1 05       	cpc	r27, r1
 a50:	21 f0       	breq	.+8      	; 0xa5a <__floatunsisf+0x9e>
 a52:	41 e0       	ldi	r20, 0x01	; 1
 a54:	50 e0       	ldi	r21, 0x00	; 0
 a56:	60 e0       	ldi	r22, 0x00	; 0
 a58:	70 e0       	ldi	r23, 0x00	; 0
 a5a:	4a 29       	or	r20, r10
 a5c:	5b 29       	or	r21, r11
 a5e:	6c 29       	or	r22, r12
 a60:	7d 29       	or	r23, r13
 a62:	4d 83       	std	Y+5, r20	; 0x05
 a64:	5e 83       	std	Y+6, r21	; 0x06
 a66:	6f 83       	std	Y+7, r22	; 0x07
 a68:	78 87       	std	Y+8, r23	; 0x08
 a6a:	8e e1       	ldi	r24, 0x1E	; 30
 a6c:	90 e0       	ldi	r25, 0x00	; 0
 a6e:	8e 1b       	sub	r24, r30
 a70:	9f 0b       	sbc	r25, r31
 a72:	9c 83       	std	Y+4, r25	; 0x04
 a74:	8b 83       	std	Y+3, r24	; 0x03
 a76:	12 c0       	rjmp	.+36     	; 0xa9c <__floatunsisf+0xe0>
 a78:	30 97       	sbiw	r30, 0x00	; 0
 a7a:	81 f0       	breq	.+32     	; 0xa9c <__floatunsisf+0xe0>
 a7c:	0e 2e       	mov	r0, r30
 a7e:	04 c0       	rjmp	.+8      	; 0xa88 <__floatunsisf+0xcc>
 a80:	ee 0c       	add	r14, r14
 a82:	ff 1c       	adc	r15, r15
 a84:	00 1f       	adc	r16, r16
 a86:	11 1f       	adc	r17, r17
 a88:	0a 94       	dec	r0
 a8a:	d2 f7       	brpl	.-12     	; 0xa80 <__floatunsisf+0xc4>
 a8c:	ed 82       	std	Y+5, r14	; 0x05
 a8e:	fe 82       	std	Y+6, r15	; 0x06
 a90:	0f 83       	std	Y+7, r16	; 0x07
 a92:	18 87       	std	Y+8, r17	; 0x08
 a94:	ce 1a       	sub	r12, r30
 a96:	df 0a       	sbc	r13, r31
 a98:	dc 82       	std	Y+4, r13	; 0x04
 a9a:	cb 82       	std	Y+3, r12	; 0x03
 a9c:	1a 82       	std	Y+2, r1	; 0x02
 a9e:	ce 01       	movw	r24, r28
 aa0:	01 96       	adiw	r24, 0x01	; 1
 aa2:	0e 94 a6 05 	call	0xb4c	; 0xb4c <__pack_f>
 aa6:	28 96       	adiw	r28, 0x08	; 8
 aa8:	ea e0       	ldi	r30, 0x0A	; 10
 aaa:	0c 94 70 07 	jmp	0xee0	; 0xee0 <__epilogue_restores__+0x10>

00000aae <__clzsi2>:
 aae:	ef 92       	push	r14
 ab0:	ff 92       	push	r15
 ab2:	0f 93       	push	r16
 ab4:	1f 93       	push	r17
 ab6:	7b 01       	movw	r14, r22
 ab8:	8c 01       	movw	r16, r24
 aba:	80 e0       	ldi	r24, 0x00	; 0
 abc:	e8 16       	cp	r14, r24
 abe:	80 e0       	ldi	r24, 0x00	; 0
 ac0:	f8 06       	cpc	r15, r24
 ac2:	81 e0       	ldi	r24, 0x01	; 1
 ac4:	08 07       	cpc	r16, r24
 ac6:	80 e0       	ldi	r24, 0x00	; 0
 ac8:	18 07       	cpc	r17, r24
 aca:	88 f4       	brcc	.+34     	; 0xaee <__clzsi2+0x40>
 acc:	8f ef       	ldi	r24, 0xFF	; 255
 ace:	e8 16       	cp	r14, r24
 ad0:	f1 04       	cpc	r15, r1
 ad2:	01 05       	cpc	r16, r1
 ad4:	11 05       	cpc	r17, r1
 ad6:	31 f0       	breq	.+12     	; 0xae4 <__clzsi2+0x36>
 ad8:	28 f0       	brcs	.+10     	; 0xae4 <__clzsi2+0x36>
 ada:	88 e0       	ldi	r24, 0x08	; 8
 adc:	90 e0       	ldi	r25, 0x00	; 0
 ade:	a0 e0       	ldi	r26, 0x00	; 0
 ae0:	b0 e0       	ldi	r27, 0x00	; 0
 ae2:	17 c0       	rjmp	.+46     	; 0xb12 <__clzsi2+0x64>
 ae4:	80 e0       	ldi	r24, 0x00	; 0
 ae6:	90 e0       	ldi	r25, 0x00	; 0
 ae8:	a0 e0       	ldi	r26, 0x00	; 0
 aea:	b0 e0       	ldi	r27, 0x00	; 0
 aec:	12 c0       	rjmp	.+36     	; 0xb12 <__clzsi2+0x64>
 aee:	80 e0       	ldi	r24, 0x00	; 0
 af0:	e8 16       	cp	r14, r24
 af2:	80 e0       	ldi	r24, 0x00	; 0
 af4:	f8 06       	cpc	r15, r24
 af6:	80 e0       	ldi	r24, 0x00	; 0
 af8:	08 07       	cpc	r16, r24
 afa:	81 e0       	ldi	r24, 0x01	; 1
 afc:	18 07       	cpc	r17, r24
 afe:	28 f0       	brcs	.+10     	; 0xb0a <__clzsi2+0x5c>
 b00:	88 e1       	ldi	r24, 0x18	; 24
 b02:	90 e0       	ldi	r25, 0x00	; 0
 b04:	a0 e0       	ldi	r26, 0x00	; 0
 b06:	b0 e0       	ldi	r27, 0x00	; 0
 b08:	04 c0       	rjmp	.+8      	; 0xb12 <__clzsi2+0x64>
 b0a:	80 e1       	ldi	r24, 0x10	; 16
 b0c:	90 e0       	ldi	r25, 0x00	; 0
 b0e:	a0 e0       	ldi	r26, 0x00	; 0
 b10:	b0 e0       	ldi	r27, 0x00	; 0
 b12:	20 e2       	ldi	r18, 0x20	; 32
 b14:	30 e0       	ldi	r19, 0x00	; 0
 b16:	40 e0       	ldi	r20, 0x00	; 0
 b18:	50 e0       	ldi	r21, 0x00	; 0
 b1a:	28 1b       	sub	r18, r24
 b1c:	39 0b       	sbc	r19, r25
 b1e:	4a 0b       	sbc	r20, r26
 b20:	5b 0b       	sbc	r21, r27
 b22:	04 c0       	rjmp	.+8      	; 0xb2c <__clzsi2+0x7e>
 b24:	16 95       	lsr	r17
 b26:	07 95       	ror	r16
 b28:	f7 94       	ror	r15
 b2a:	e7 94       	ror	r14
 b2c:	8a 95       	dec	r24
 b2e:	d2 f7       	brpl	.-12     	; 0xb24 <__clzsi2+0x76>
 b30:	f7 01       	movw	r30, r14
 b32:	e8 59       	subi	r30, 0x98	; 152
 b34:	ff 4f       	sbci	r31, 0xFF	; 255
 b36:	80 81       	ld	r24, Z
 b38:	28 1b       	sub	r18, r24
 b3a:	31 09       	sbc	r19, r1
 b3c:	41 09       	sbc	r20, r1
 b3e:	51 09       	sbc	r21, r1
 b40:	c9 01       	movw	r24, r18
 b42:	1f 91       	pop	r17
 b44:	0f 91       	pop	r16
 b46:	ff 90       	pop	r15
 b48:	ef 90       	pop	r14
 b4a:	08 95       	ret

00000b4c <__pack_f>:
 b4c:	df 92       	push	r13
 b4e:	ef 92       	push	r14
 b50:	ff 92       	push	r15
 b52:	0f 93       	push	r16
 b54:	1f 93       	push	r17
 b56:	fc 01       	movw	r30, r24
 b58:	e4 80       	ldd	r14, Z+4	; 0x04
 b5a:	f5 80       	ldd	r15, Z+5	; 0x05
 b5c:	06 81       	ldd	r16, Z+6	; 0x06
 b5e:	17 81       	ldd	r17, Z+7	; 0x07
 b60:	d1 80       	ldd	r13, Z+1	; 0x01
 b62:	80 81       	ld	r24, Z
 b64:	82 30       	cpi	r24, 0x02	; 2
 b66:	48 f4       	brcc	.+18     	; 0xb7a <__pack_f+0x2e>
 b68:	80 e0       	ldi	r24, 0x00	; 0
 b6a:	90 e0       	ldi	r25, 0x00	; 0
 b6c:	a0 e1       	ldi	r26, 0x10	; 16
 b6e:	b0 e0       	ldi	r27, 0x00	; 0
 b70:	e8 2a       	or	r14, r24
 b72:	f9 2a       	or	r15, r25
 b74:	0a 2b       	or	r16, r26
 b76:	1b 2b       	or	r17, r27
 b78:	a5 c0       	rjmp	.+330    	; 0xcc4 <__pack_f+0x178>
 b7a:	84 30       	cpi	r24, 0x04	; 4
 b7c:	09 f4       	brne	.+2      	; 0xb80 <__pack_f+0x34>
 b7e:	9f c0       	rjmp	.+318    	; 0xcbe <__pack_f+0x172>
 b80:	82 30       	cpi	r24, 0x02	; 2
 b82:	21 f4       	brne	.+8      	; 0xb8c <__pack_f+0x40>
 b84:	ee 24       	eor	r14, r14
 b86:	ff 24       	eor	r15, r15
 b88:	87 01       	movw	r16, r14
 b8a:	05 c0       	rjmp	.+10     	; 0xb96 <__pack_f+0x4a>
 b8c:	e1 14       	cp	r14, r1
 b8e:	f1 04       	cpc	r15, r1
 b90:	01 05       	cpc	r16, r1
 b92:	11 05       	cpc	r17, r1
 b94:	19 f4       	brne	.+6      	; 0xb9c <__pack_f+0x50>
 b96:	e0 e0       	ldi	r30, 0x00	; 0
 b98:	f0 e0       	ldi	r31, 0x00	; 0
 b9a:	96 c0       	rjmp	.+300    	; 0xcc8 <__pack_f+0x17c>
 b9c:	62 81       	ldd	r22, Z+2	; 0x02
 b9e:	73 81       	ldd	r23, Z+3	; 0x03
 ba0:	9f ef       	ldi	r25, 0xFF	; 255
 ba2:	62 38       	cpi	r22, 0x82	; 130
 ba4:	79 07       	cpc	r23, r25
 ba6:	0c f0       	brlt	.+2      	; 0xbaa <__pack_f+0x5e>
 ba8:	5b c0       	rjmp	.+182    	; 0xc60 <__pack_f+0x114>
 baa:	22 e8       	ldi	r18, 0x82	; 130
 bac:	3f ef       	ldi	r19, 0xFF	; 255
 bae:	26 1b       	sub	r18, r22
 bb0:	37 0b       	sbc	r19, r23
 bb2:	2a 31       	cpi	r18, 0x1A	; 26
 bb4:	31 05       	cpc	r19, r1
 bb6:	2c f0       	brlt	.+10     	; 0xbc2 <__pack_f+0x76>
 bb8:	20 e0       	ldi	r18, 0x00	; 0
 bba:	30 e0       	ldi	r19, 0x00	; 0
 bbc:	40 e0       	ldi	r20, 0x00	; 0
 bbe:	50 e0       	ldi	r21, 0x00	; 0
 bc0:	2a c0       	rjmp	.+84     	; 0xc16 <__pack_f+0xca>
 bc2:	b8 01       	movw	r22, r16
 bc4:	a7 01       	movw	r20, r14
 bc6:	02 2e       	mov	r0, r18
 bc8:	04 c0       	rjmp	.+8      	; 0xbd2 <__pack_f+0x86>
 bca:	76 95       	lsr	r23
 bcc:	67 95       	ror	r22
 bce:	57 95       	ror	r21
 bd0:	47 95       	ror	r20
 bd2:	0a 94       	dec	r0
 bd4:	d2 f7       	brpl	.-12     	; 0xbca <__pack_f+0x7e>
 bd6:	81 e0       	ldi	r24, 0x01	; 1
 bd8:	90 e0       	ldi	r25, 0x00	; 0
 bda:	a0 e0       	ldi	r26, 0x00	; 0
 bdc:	b0 e0       	ldi	r27, 0x00	; 0
 bde:	04 c0       	rjmp	.+8      	; 0xbe8 <__pack_f+0x9c>
 be0:	88 0f       	add	r24, r24
 be2:	99 1f       	adc	r25, r25
 be4:	aa 1f       	adc	r26, r26
 be6:	bb 1f       	adc	r27, r27
 be8:	2a 95       	dec	r18
 bea:	d2 f7       	brpl	.-12     	; 0xbe0 <__pack_f+0x94>
 bec:	01 97       	sbiw	r24, 0x01	; 1
 bee:	a1 09       	sbc	r26, r1
 bf0:	b1 09       	sbc	r27, r1
 bf2:	8e 21       	and	r24, r14
 bf4:	9f 21       	and	r25, r15
 bf6:	a0 23       	and	r26, r16
 bf8:	b1 23       	and	r27, r17
 bfa:	00 97       	sbiw	r24, 0x00	; 0
 bfc:	a1 05       	cpc	r26, r1
 bfe:	b1 05       	cpc	r27, r1
 c00:	21 f0       	breq	.+8      	; 0xc0a <__pack_f+0xbe>
 c02:	81 e0       	ldi	r24, 0x01	; 1
 c04:	90 e0       	ldi	r25, 0x00	; 0
 c06:	a0 e0       	ldi	r26, 0x00	; 0
 c08:	b0 e0       	ldi	r27, 0x00	; 0
 c0a:	9a 01       	movw	r18, r20
 c0c:	ab 01       	movw	r20, r22
 c0e:	28 2b       	or	r18, r24
 c10:	39 2b       	or	r19, r25
 c12:	4a 2b       	or	r20, r26
 c14:	5b 2b       	or	r21, r27
 c16:	da 01       	movw	r26, r20
 c18:	c9 01       	movw	r24, r18
 c1a:	8f 77       	andi	r24, 0x7F	; 127
 c1c:	90 70       	andi	r25, 0x00	; 0
 c1e:	a0 70       	andi	r26, 0x00	; 0
 c20:	b0 70       	andi	r27, 0x00	; 0
 c22:	80 34       	cpi	r24, 0x40	; 64
 c24:	91 05       	cpc	r25, r1
 c26:	a1 05       	cpc	r26, r1
 c28:	b1 05       	cpc	r27, r1
 c2a:	39 f4       	brne	.+14     	; 0xc3a <__pack_f+0xee>
 c2c:	27 ff       	sbrs	r18, 7
 c2e:	09 c0       	rjmp	.+18     	; 0xc42 <__pack_f+0xf6>
 c30:	20 5c       	subi	r18, 0xC0	; 192
 c32:	3f 4f       	sbci	r19, 0xFF	; 255
 c34:	4f 4f       	sbci	r20, 0xFF	; 255
 c36:	5f 4f       	sbci	r21, 0xFF	; 255
 c38:	04 c0       	rjmp	.+8      	; 0xc42 <__pack_f+0xf6>
 c3a:	21 5c       	subi	r18, 0xC1	; 193
 c3c:	3f 4f       	sbci	r19, 0xFF	; 255
 c3e:	4f 4f       	sbci	r20, 0xFF	; 255
 c40:	5f 4f       	sbci	r21, 0xFF	; 255
 c42:	e0 e0       	ldi	r30, 0x00	; 0
 c44:	f0 e0       	ldi	r31, 0x00	; 0
 c46:	20 30       	cpi	r18, 0x00	; 0
 c48:	a0 e0       	ldi	r26, 0x00	; 0
 c4a:	3a 07       	cpc	r19, r26
 c4c:	a0 e0       	ldi	r26, 0x00	; 0
 c4e:	4a 07       	cpc	r20, r26
 c50:	a0 e4       	ldi	r26, 0x40	; 64
 c52:	5a 07       	cpc	r21, r26
 c54:	10 f0       	brcs	.+4      	; 0xc5a <__pack_f+0x10e>
 c56:	e1 e0       	ldi	r30, 0x01	; 1
 c58:	f0 e0       	ldi	r31, 0x00	; 0
 c5a:	79 01       	movw	r14, r18
 c5c:	8a 01       	movw	r16, r20
 c5e:	27 c0       	rjmp	.+78     	; 0xcae <__pack_f+0x162>
 c60:	60 38       	cpi	r22, 0x80	; 128
 c62:	71 05       	cpc	r23, r1
 c64:	64 f5       	brge	.+88     	; 0xcbe <__pack_f+0x172>
 c66:	fb 01       	movw	r30, r22
 c68:	e1 58       	subi	r30, 0x81	; 129
 c6a:	ff 4f       	sbci	r31, 0xFF	; 255
 c6c:	d8 01       	movw	r26, r16
 c6e:	c7 01       	movw	r24, r14
 c70:	8f 77       	andi	r24, 0x7F	; 127
 c72:	90 70       	andi	r25, 0x00	; 0
 c74:	a0 70       	andi	r26, 0x00	; 0
 c76:	b0 70       	andi	r27, 0x00	; 0
 c78:	80 34       	cpi	r24, 0x40	; 64
 c7a:	91 05       	cpc	r25, r1
 c7c:	a1 05       	cpc	r26, r1
 c7e:	b1 05       	cpc	r27, r1
 c80:	39 f4       	brne	.+14     	; 0xc90 <__pack_f+0x144>
 c82:	e7 fe       	sbrs	r14, 7
 c84:	0d c0       	rjmp	.+26     	; 0xca0 <__pack_f+0x154>
 c86:	80 e4       	ldi	r24, 0x40	; 64
 c88:	90 e0       	ldi	r25, 0x00	; 0
 c8a:	a0 e0       	ldi	r26, 0x00	; 0
 c8c:	b0 e0       	ldi	r27, 0x00	; 0
 c8e:	04 c0       	rjmp	.+8      	; 0xc98 <__pack_f+0x14c>
 c90:	8f e3       	ldi	r24, 0x3F	; 63
 c92:	90 e0       	ldi	r25, 0x00	; 0
 c94:	a0 e0       	ldi	r26, 0x00	; 0
 c96:	b0 e0       	ldi	r27, 0x00	; 0
 c98:	e8 0e       	add	r14, r24
 c9a:	f9 1e       	adc	r15, r25
 c9c:	0a 1f       	adc	r16, r26
 c9e:	1b 1f       	adc	r17, r27
 ca0:	17 ff       	sbrs	r17, 7
 ca2:	05 c0       	rjmp	.+10     	; 0xcae <__pack_f+0x162>
 ca4:	16 95       	lsr	r17
 ca6:	07 95       	ror	r16
 ca8:	f7 94       	ror	r15
 caa:	e7 94       	ror	r14
 cac:	31 96       	adiw	r30, 0x01	; 1
 cae:	87 e0       	ldi	r24, 0x07	; 7
 cb0:	16 95       	lsr	r17
 cb2:	07 95       	ror	r16
 cb4:	f7 94       	ror	r15
 cb6:	e7 94       	ror	r14
 cb8:	8a 95       	dec	r24
 cba:	d1 f7       	brne	.-12     	; 0xcb0 <__pack_f+0x164>
 cbc:	05 c0       	rjmp	.+10     	; 0xcc8 <__pack_f+0x17c>
 cbe:	ee 24       	eor	r14, r14
 cc0:	ff 24       	eor	r15, r15
 cc2:	87 01       	movw	r16, r14
 cc4:	ef ef       	ldi	r30, 0xFF	; 255
 cc6:	f0 e0       	ldi	r31, 0x00	; 0
 cc8:	6e 2f       	mov	r22, r30
 cca:	67 95       	ror	r22
 ccc:	66 27       	eor	r22, r22
 cce:	67 95       	ror	r22
 cd0:	90 2f       	mov	r25, r16
 cd2:	9f 77       	andi	r25, 0x7F	; 127
 cd4:	d7 94       	ror	r13
 cd6:	dd 24       	eor	r13, r13
 cd8:	d7 94       	ror	r13
 cda:	8e 2f       	mov	r24, r30
 cdc:	86 95       	lsr	r24
 cde:	49 2f       	mov	r20, r25
 ce0:	46 2b       	or	r20, r22
 ce2:	58 2f       	mov	r21, r24
 ce4:	5d 29       	or	r21, r13
 ce6:	b7 01       	movw	r22, r14
 ce8:	ca 01       	movw	r24, r20
 cea:	1f 91       	pop	r17
 cec:	0f 91       	pop	r16
 cee:	ff 90       	pop	r15
 cf0:	ef 90       	pop	r14
 cf2:	df 90       	pop	r13
 cf4:	08 95       	ret

00000cf6 <__unpack_f>:
 cf6:	fc 01       	movw	r30, r24
 cf8:	db 01       	movw	r26, r22
 cfa:	40 81       	ld	r20, Z
 cfc:	51 81       	ldd	r21, Z+1	; 0x01
 cfe:	22 81       	ldd	r18, Z+2	; 0x02
 d00:	62 2f       	mov	r22, r18
 d02:	6f 77       	andi	r22, 0x7F	; 127
 d04:	70 e0       	ldi	r23, 0x00	; 0
 d06:	22 1f       	adc	r18, r18
 d08:	22 27       	eor	r18, r18
 d0a:	22 1f       	adc	r18, r18
 d0c:	93 81       	ldd	r25, Z+3	; 0x03
 d0e:	89 2f       	mov	r24, r25
 d10:	88 0f       	add	r24, r24
 d12:	82 2b       	or	r24, r18
 d14:	28 2f       	mov	r18, r24
 d16:	30 e0       	ldi	r19, 0x00	; 0
 d18:	99 1f       	adc	r25, r25
 d1a:	99 27       	eor	r25, r25
 d1c:	99 1f       	adc	r25, r25
 d1e:	11 96       	adiw	r26, 0x01	; 1
 d20:	9c 93       	st	X, r25
 d22:	11 97       	sbiw	r26, 0x01	; 1
 d24:	21 15       	cp	r18, r1
 d26:	31 05       	cpc	r19, r1
 d28:	a9 f5       	brne	.+106    	; 0xd94 <__unpack_f+0x9e>
 d2a:	41 15       	cp	r20, r1
 d2c:	51 05       	cpc	r21, r1
 d2e:	61 05       	cpc	r22, r1
 d30:	71 05       	cpc	r23, r1
 d32:	11 f4       	brne	.+4      	; 0xd38 <__unpack_f+0x42>
 d34:	82 e0       	ldi	r24, 0x02	; 2
 d36:	37 c0       	rjmp	.+110    	; 0xda6 <__unpack_f+0xb0>
 d38:	82 e8       	ldi	r24, 0x82	; 130
 d3a:	9f ef       	ldi	r25, 0xFF	; 255
 d3c:	13 96       	adiw	r26, 0x03	; 3
 d3e:	9c 93       	st	X, r25
 d40:	8e 93       	st	-X, r24
 d42:	12 97       	sbiw	r26, 0x02	; 2
 d44:	9a 01       	movw	r18, r20
 d46:	ab 01       	movw	r20, r22
 d48:	67 e0       	ldi	r22, 0x07	; 7
 d4a:	22 0f       	add	r18, r18
 d4c:	33 1f       	adc	r19, r19
 d4e:	44 1f       	adc	r20, r20
 d50:	55 1f       	adc	r21, r21
 d52:	6a 95       	dec	r22
 d54:	d1 f7       	brne	.-12     	; 0xd4a <__unpack_f+0x54>
 d56:	83 e0       	ldi	r24, 0x03	; 3
 d58:	8c 93       	st	X, r24
 d5a:	0d c0       	rjmp	.+26     	; 0xd76 <__unpack_f+0x80>
 d5c:	22 0f       	add	r18, r18
 d5e:	33 1f       	adc	r19, r19
 d60:	44 1f       	adc	r20, r20
 d62:	55 1f       	adc	r21, r21
 d64:	12 96       	adiw	r26, 0x02	; 2
 d66:	8d 91       	ld	r24, X+
 d68:	9c 91       	ld	r25, X
 d6a:	13 97       	sbiw	r26, 0x03	; 3
 d6c:	01 97       	sbiw	r24, 0x01	; 1
 d6e:	13 96       	adiw	r26, 0x03	; 3
 d70:	9c 93       	st	X, r25
 d72:	8e 93       	st	-X, r24
 d74:	12 97       	sbiw	r26, 0x02	; 2
 d76:	20 30       	cpi	r18, 0x00	; 0
 d78:	80 e0       	ldi	r24, 0x00	; 0
 d7a:	38 07       	cpc	r19, r24
 d7c:	80 e0       	ldi	r24, 0x00	; 0
 d7e:	48 07       	cpc	r20, r24
 d80:	80 e4       	ldi	r24, 0x40	; 64
 d82:	58 07       	cpc	r21, r24
 d84:	58 f3       	brcs	.-42     	; 0xd5c <__unpack_f+0x66>
 d86:	14 96       	adiw	r26, 0x04	; 4
 d88:	2d 93       	st	X+, r18
 d8a:	3d 93       	st	X+, r19
 d8c:	4d 93       	st	X+, r20
 d8e:	5c 93       	st	X, r21
 d90:	17 97       	sbiw	r26, 0x07	; 7
 d92:	08 95       	ret
 d94:	2f 3f       	cpi	r18, 0xFF	; 255
 d96:	31 05       	cpc	r19, r1
 d98:	79 f4       	brne	.+30     	; 0xdb8 <__unpack_f+0xc2>
 d9a:	41 15       	cp	r20, r1
 d9c:	51 05       	cpc	r21, r1
 d9e:	61 05       	cpc	r22, r1
 da0:	71 05       	cpc	r23, r1
 da2:	19 f4       	brne	.+6      	; 0xdaa <__unpack_f+0xb4>
 da4:	84 e0       	ldi	r24, 0x04	; 4
 da6:	8c 93       	st	X, r24
 da8:	08 95       	ret
 daa:	64 ff       	sbrs	r22, 4
 dac:	03 c0       	rjmp	.+6      	; 0xdb4 <__unpack_f+0xbe>
 dae:	81 e0       	ldi	r24, 0x01	; 1
 db0:	8c 93       	st	X, r24
 db2:	12 c0       	rjmp	.+36     	; 0xdd8 <__unpack_f+0xe2>
 db4:	1c 92       	st	X, r1
 db6:	10 c0       	rjmp	.+32     	; 0xdd8 <__unpack_f+0xe2>
 db8:	2f 57       	subi	r18, 0x7F	; 127
 dba:	30 40       	sbci	r19, 0x00	; 0
 dbc:	13 96       	adiw	r26, 0x03	; 3
 dbe:	3c 93       	st	X, r19
 dc0:	2e 93       	st	-X, r18
 dc2:	12 97       	sbiw	r26, 0x02	; 2
 dc4:	83 e0       	ldi	r24, 0x03	; 3
 dc6:	8c 93       	st	X, r24
 dc8:	87 e0       	ldi	r24, 0x07	; 7
 dca:	44 0f       	add	r20, r20
 dcc:	55 1f       	adc	r21, r21
 dce:	66 1f       	adc	r22, r22
 dd0:	77 1f       	adc	r23, r23
 dd2:	8a 95       	dec	r24
 dd4:	d1 f7       	brne	.-12     	; 0xdca <__unpack_f+0xd4>
 dd6:	70 64       	ori	r23, 0x40	; 64
 dd8:	14 96       	adiw	r26, 0x04	; 4
 dda:	4d 93       	st	X+, r20
 ddc:	5d 93       	st	X+, r21
 dde:	6d 93       	st	X+, r22
 de0:	7c 93       	st	X, r23
 de2:	17 97       	sbiw	r26, 0x07	; 7
 de4:	08 95       	ret

00000de6 <__fpcmp_parts_f>:
 de6:	1f 93       	push	r17
 de8:	dc 01       	movw	r26, r24
 dea:	fb 01       	movw	r30, r22
 dec:	9c 91       	ld	r25, X
 dee:	92 30       	cpi	r25, 0x02	; 2
 df0:	08 f4       	brcc	.+2      	; 0xdf4 <__fpcmp_parts_f+0xe>
 df2:	47 c0       	rjmp	.+142    	; 0xe82 <__fpcmp_parts_f+0x9c>
 df4:	80 81       	ld	r24, Z
 df6:	82 30       	cpi	r24, 0x02	; 2
 df8:	08 f4       	brcc	.+2      	; 0xdfc <__fpcmp_parts_f+0x16>
 dfa:	43 c0       	rjmp	.+134    	; 0xe82 <__fpcmp_parts_f+0x9c>
 dfc:	94 30       	cpi	r25, 0x04	; 4
 dfe:	51 f4       	brne	.+20     	; 0xe14 <__fpcmp_parts_f+0x2e>
 e00:	11 96       	adiw	r26, 0x01	; 1
 e02:	1c 91       	ld	r17, X
 e04:	84 30       	cpi	r24, 0x04	; 4
 e06:	99 f5       	brne	.+102    	; 0xe6e <__fpcmp_parts_f+0x88>
 e08:	81 81       	ldd	r24, Z+1	; 0x01
 e0a:	68 2f       	mov	r22, r24
 e0c:	70 e0       	ldi	r23, 0x00	; 0
 e0e:	61 1b       	sub	r22, r17
 e10:	71 09       	sbc	r23, r1
 e12:	3f c0       	rjmp	.+126    	; 0xe92 <__fpcmp_parts_f+0xac>
 e14:	84 30       	cpi	r24, 0x04	; 4
 e16:	21 f0       	breq	.+8      	; 0xe20 <__fpcmp_parts_f+0x3a>
 e18:	92 30       	cpi	r25, 0x02	; 2
 e1a:	31 f4       	brne	.+12     	; 0xe28 <__fpcmp_parts_f+0x42>
 e1c:	82 30       	cpi	r24, 0x02	; 2
 e1e:	b9 f1       	breq	.+110    	; 0xe8e <__fpcmp_parts_f+0xa8>
 e20:	81 81       	ldd	r24, Z+1	; 0x01
 e22:	88 23       	and	r24, r24
 e24:	89 f1       	breq	.+98     	; 0xe88 <__fpcmp_parts_f+0xa2>
 e26:	2d c0       	rjmp	.+90     	; 0xe82 <__fpcmp_parts_f+0x9c>
 e28:	11 96       	adiw	r26, 0x01	; 1
 e2a:	1c 91       	ld	r17, X
 e2c:	11 97       	sbiw	r26, 0x01	; 1
 e2e:	82 30       	cpi	r24, 0x02	; 2
 e30:	f1 f0       	breq	.+60     	; 0xe6e <__fpcmp_parts_f+0x88>
 e32:	81 81       	ldd	r24, Z+1	; 0x01
 e34:	18 17       	cp	r17, r24
 e36:	d9 f4       	brne	.+54     	; 0xe6e <__fpcmp_parts_f+0x88>
 e38:	12 96       	adiw	r26, 0x02	; 2
 e3a:	2d 91       	ld	r18, X+
 e3c:	3c 91       	ld	r19, X
 e3e:	13 97       	sbiw	r26, 0x03	; 3
 e40:	82 81       	ldd	r24, Z+2	; 0x02
 e42:	93 81       	ldd	r25, Z+3	; 0x03
 e44:	82 17       	cp	r24, r18
 e46:	93 07       	cpc	r25, r19
 e48:	94 f0       	brlt	.+36     	; 0xe6e <__fpcmp_parts_f+0x88>
 e4a:	28 17       	cp	r18, r24
 e4c:	39 07       	cpc	r19, r25
 e4e:	bc f0       	brlt	.+46     	; 0xe7e <__fpcmp_parts_f+0x98>
 e50:	14 96       	adiw	r26, 0x04	; 4
 e52:	8d 91       	ld	r24, X+
 e54:	9d 91       	ld	r25, X+
 e56:	0d 90       	ld	r0, X+
 e58:	bc 91       	ld	r27, X
 e5a:	a0 2d       	mov	r26, r0
 e5c:	24 81       	ldd	r18, Z+4	; 0x04
 e5e:	35 81       	ldd	r19, Z+5	; 0x05
 e60:	46 81       	ldd	r20, Z+6	; 0x06
 e62:	57 81       	ldd	r21, Z+7	; 0x07
 e64:	28 17       	cp	r18, r24
 e66:	39 07       	cpc	r19, r25
 e68:	4a 07       	cpc	r20, r26
 e6a:	5b 07       	cpc	r21, r27
 e6c:	18 f4       	brcc	.+6      	; 0xe74 <__fpcmp_parts_f+0x8e>
 e6e:	11 23       	and	r17, r17
 e70:	41 f0       	breq	.+16     	; 0xe82 <__fpcmp_parts_f+0x9c>
 e72:	0a c0       	rjmp	.+20     	; 0xe88 <__fpcmp_parts_f+0xa2>
 e74:	82 17       	cp	r24, r18
 e76:	93 07       	cpc	r25, r19
 e78:	a4 07       	cpc	r26, r20
 e7a:	b5 07       	cpc	r27, r21
 e7c:	40 f4       	brcc	.+16     	; 0xe8e <__fpcmp_parts_f+0xa8>
 e7e:	11 23       	and	r17, r17
 e80:	19 f0       	breq	.+6      	; 0xe88 <__fpcmp_parts_f+0xa2>
 e82:	61 e0       	ldi	r22, 0x01	; 1
 e84:	70 e0       	ldi	r23, 0x00	; 0
 e86:	05 c0       	rjmp	.+10     	; 0xe92 <__fpcmp_parts_f+0xac>
 e88:	6f ef       	ldi	r22, 0xFF	; 255
 e8a:	7f ef       	ldi	r23, 0xFF	; 255
 e8c:	02 c0       	rjmp	.+4      	; 0xe92 <__fpcmp_parts_f+0xac>
 e8e:	60 e0       	ldi	r22, 0x00	; 0
 e90:	70 e0       	ldi	r23, 0x00	; 0
 e92:	cb 01       	movw	r24, r22
 e94:	1f 91       	pop	r17
 e96:	08 95       	ret

00000e98 <__prologue_saves__>:
 e98:	2f 92       	push	r2
 e9a:	3f 92       	push	r3
 e9c:	4f 92       	push	r4
 e9e:	5f 92       	push	r5
 ea0:	6f 92       	push	r6
 ea2:	7f 92       	push	r7
 ea4:	8f 92       	push	r8
 ea6:	9f 92       	push	r9
 ea8:	af 92       	push	r10
 eaa:	bf 92       	push	r11
 eac:	cf 92       	push	r12
 eae:	df 92       	push	r13
 eb0:	ef 92       	push	r14
 eb2:	ff 92       	push	r15
 eb4:	0f 93       	push	r16
 eb6:	1f 93       	push	r17
 eb8:	cf 93       	push	r28
 eba:	df 93       	push	r29
 ebc:	cd b7       	in	r28, 0x3d	; 61
 ebe:	de b7       	in	r29, 0x3e	; 62
 ec0:	ca 1b       	sub	r28, r26
 ec2:	db 0b       	sbc	r29, r27
 ec4:	0f b6       	in	r0, 0x3f	; 63
 ec6:	f8 94       	cli
 ec8:	de bf       	out	0x3e, r29	; 62
 eca:	0f be       	out	0x3f, r0	; 63
 ecc:	cd bf       	out	0x3d, r28	; 61
 ece:	09 94       	ijmp

00000ed0 <__epilogue_restores__>:
 ed0:	2a 88       	ldd	r2, Y+18	; 0x12
 ed2:	39 88       	ldd	r3, Y+17	; 0x11
 ed4:	48 88       	ldd	r4, Y+16	; 0x10
 ed6:	5f 84       	ldd	r5, Y+15	; 0x0f
 ed8:	6e 84       	ldd	r6, Y+14	; 0x0e
 eda:	7d 84       	ldd	r7, Y+13	; 0x0d
 edc:	8c 84       	ldd	r8, Y+12	; 0x0c
 ede:	9b 84       	ldd	r9, Y+11	; 0x0b
 ee0:	aa 84       	ldd	r10, Y+10	; 0x0a
 ee2:	b9 84       	ldd	r11, Y+9	; 0x09
 ee4:	c8 84       	ldd	r12, Y+8	; 0x08
 ee6:	df 80       	ldd	r13, Y+7	; 0x07
 ee8:	ee 80       	ldd	r14, Y+6	; 0x06
 eea:	fd 80       	ldd	r15, Y+5	; 0x05
 eec:	0c 81       	ldd	r16, Y+4	; 0x04
 eee:	1b 81       	ldd	r17, Y+3	; 0x03
 ef0:	aa 81       	ldd	r26, Y+2	; 0x02
 ef2:	b9 81       	ldd	r27, Y+1	; 0x01
 ef4:	ce 0f       	add	r28, r30
 ef6:	d1 1d       	adc	r29, r1
 ef8:	0f b6       	in	r0, 0x3f	; 63
 efa:	f8 94       	cli
 efc:	de bf       	out	0x3e, r29	; 62
 efe:	0f be       	out	0x3f, r0	; 63
 f00:	cd bf       	out	0x3d, r28	; 61
 f02:	ed 01       	movw	r28, r26
 f04:	08 95       	ret

00000f06 <_exit>:
 f06:	f8 94       	cli

00000f08 <__stop_program>:
 f08:	ff cf       	rjmp	.-2      	; 0xf08 <__stop_program>
