
Controller.elf:     file format elf32-avr

Sections:
Idx Name          Size      VMA       LMA       File off  Algn
  0 .text         00000594  00000000  00000000  00000074  2**1
                  CONTENTS, ALLOC, LOAD, READONLY, CODE
  1 .bss          0000001a  00800060  00800060  00000608  2**0
                  ALLOC
  2 .debug_aranges 00000020  00000000  00000000  00000608  2**0
                  CONTENTS, READONLY, DEBUGGING
  3 .debug_pubnames 00000200  00000000  00000000  00000628  2**0
                  CONTENTS, READONLY, DEBUGGING
  4 .debug_info   00000b28  00000000  00000000  00000828  2**0
                  CONTENTS, READONLY, DEBUGGING
  5 .debug_abbrev 0000027b  00000000  00000000  00001350  2**0
                  CONTENTS, READONLY, DEBUGGING
  6 .debug_line   00000aa7  00000000  00000000  000015cb  2**0
                  CONTENTS, READONLY, DEBUGGING
  7 .debug_frame  00000190  00000000  00000000  00002074  2**2
                  CONTENTS, READONLY, DEBUGGING
  8 .debug_str    000002d8  00000000  00000000  00002204  2**0
                  CONTENTS, READONLY, DEBUGGING
  9 .debug_loc    0000030f  00000000  00000000  000024dc  2**0
                  CONTENTS, READONLY, DEBUGGING

Disassembly of section .text:

00000000 <__vectors>:
   0:	0c 94 2a 00 	jmp	0x54	; 0x54 <__ctors_end>
   4:	0c 94 3c 00 	jmp	0x78	; 0x78 <__bad_interrupt>
   8:	0c 94 3c 00 	jmp	0x78	; 0x78 <__bad_interrupt>
   c:	0c 94 3c 00 	jmp	0x78	; 0x78 <__bad_interrupt>
  10:	0c 94 3c 00 	jmp	0x78	; 0x78 <__bad_interrupt>
  14:	0c 94 3c 00 	jmp	0x78	; 0x78 <__bad_interrupt>
  18:	0c 94 3c 00 	jmp	0x78	; 0x78 <__bad_interrupt>
  1c:	0c 94 3c 00 	jmp	0x78	; 0x78 <__bad_interrupt>
  20:	0c 94 bd 02 	jmp	0x57a	; 0x57a <__vector_8>
  24:	0c 94 3c 00 	jmp	0x78	; 0x78 <__bad_interrupt>
  28:	0c 94 3c 00 	jmp	0x78	; 0x78 <__bad_interrupt>
  2c:	0c 94 3c 00 	jmp	0x78	; 0x78 <__bad_interrupt>
  30:	0c 94 3c 00 	jmp	0x78	; 0x78 <__bad_interrupt>
  34:	0c 94 3c 00 	jmp	0x78	; 0x78 <__bad_interrupt>
  38:	0c 94 3c 00 	jmp	0x78	; 0x78 <__bad_interrupt>
  3c:	0c 94 3c 00 	jmp	0x78	; 0x78 <__bad_interrupt>
  40:	0c 94 3c 00 	jmp	0x78	; 0x78 <__bad_interrupt>
  44:	0c 94 3c 00 	jmp	0x78	; 0x78 <__bad_interrupt>
  48:	0c 94 3c 00 	jmp	0x78	; 0x78 <__bad_interrupt>
  4c:	0c 94 3c 00 	jmp	0x78	; 0x78 <__bad_interrupt>
  50:	0c 94 3c 00 	jmp	0x78	; 0x78 <__bad_interrupt>

00000054 <__ctors_end>:
  54:	11 24       	eor	r1, r1
  56:	1f be       	out	0x3f, r1	; 63
  58:	cf e5       	ldi	r28, 0x5F	; 95
  5a:	d8 e0       	ldi	r29, 0x08	; 8
  5c:	de bf       	out	0x3e, r29	; 62
  5e:	cd bf       	out	0x3d, r28	; 61

00000060 <__do_clear_bss>:
  60:	10 e0       	ldi	r17, 0x00	; 0
  62:	a0 e6       	ldi	r26, 0x60	; 96
  64:	b0 e0       	ldi	r27, 0x00	; 0
  66:	01 c0       	rjmp	.+2      	; 0x6a <.do_clear_bss_start>

00000068 <.do_clear_bss_loop>:
  68:	1d 92       	st	X+, r1

0000006a <.do_clear_bss_start>:
  6a:	aa 37       	cpi	r26, 0x7A	; 122
  6c:	b1 07       	cpc	r27, r17
  6e:	e1 f7       	brne	.-8      	; 0x68 <.do_clear_bss_loop>
  70:	0e 94 c0 01 	call	0x380	; 0x380 <main>
  74:	0c 94 c8 02 	jmp	0x590	; 0x590 <_exit>

00000078 <__bad_interrupt>:
  78:	0c 94 00 00 	jmp	0	; 0x0 <__vectors>

0000007c <modify>:
}


void modify(){
	//analogLEDTest();
}
  7c:	08 95       	ret

0000007e <setupMIDI>:


/***** Setup Methods *****/

void setupMIDI(unsigned int baudrate){
	UBRRH = (unsigned char) (baudrate >> 8);
  7e:	90 bd       	out	0x20, r25	; 32
	UBRRL = (unsigned char) baudrate;
  80:	89 b9       	out	0x09, r24	; 9
	UCSRB = (1 << TXEN) | (1 << RXEN);
  82:	88 e1       	ldi	r24, 0x18	; 24
  84:	8a b9       	out	0x0a, r24	; 10
	UCSRC = (1 << URSEL )|(0 << USBS) | (3 << UCSZ0); //only use 8 bit words
  86:	86 e8       	ldi	r24, 0x86	; 134
  88:	80 bd       	out	0x20, r24	; 32
}
  8a:	08 95       	ret

0000008c <setupPins>:
void setupPins(){
	DDRB = 0xFF;  //Set outp1ts
  8c:	8f ef       	ldi	r24, 0xFF	; 255
  8e:	87 bb       	out	0x17, r24	; 23
	DDRA = 0x00;  //Set inputs
  90:	1a ba       	out	0x1a, r1	; 26
	PORTB = 0x00; //Turns all leds off
  92:	18 ba       	out	0x18, r1	; 24
	PORTA = 0x07; // sets inputs to return 5v on PA0, PA1, PA2
  94:	87 e0       	ldi	r24, 0x07	; 7
  96:	8b bb       	out	0x1b, r24	; 27
	DDRD = 0x00;
  98:	11 ba       	out	0x11, r1	; 17
}
  9a:	08 95       	ret

0000009c <setupAnalog>:
void setupAnalog(){
	ADMUX = (1 << REFS0) | (1<< MUX0) | (1<< MUX1) | (1<< MUX2); // sets the analog input of the photosensor to 0-5v, sets to look at the 7th analog pin.
  9c:	87 e4       	ldi	r24, 0x47	; 71
  9e:	87 b9       	out	0x07, r24	; 7
	ADCSRA =  (1 << ADEN) | (1<< ADPS2) | (1<< ADPS1) | (1<< ADPS0); // ADEN turns ADC on; ADPS sets prescaler to 128;
  a0:	87 e8       	ldi	r24, 0x87	; 135
  a2:	86 b9       	out	0x06, r24	; 6
}
  a4:	08 95       	ret

000000a6 <setupTimer>:
void setupTimer(){
	TCCR1A = 0x00; // enable normal mode interrupts
  a6:	1f bc       	out	0x2f, r1	; 47
	TCCR1B = (1 << CS10) | (1 << CS12); //prescaler 1024
  a8:	85 e0       	ldi	r24, 0x05	; 5
  aa:	8e bd       	out	0x2e, r24	; 46
	TIMSK = (1 << OCIE1B);
  ac:	88 e0       	ldi	r24, 0x08	; 8
  ae:	89 bf       	out	0x39, r24	; 57
	sei();
  b0:	78 94       	sei
	//OCR1A = 3906; // 1000ms delay  equation = (500*10^-3/(1/3906.25));
	OCR1B = 1952; // 500ms Delay (note this causes the leds to turn off after button press)
  b2:	80 ea       	ldi	r24, 0xA0	; 160
  b4:	97 e0       	ldi	r25, 0x07	; 7
  b6:	99 bd       	out	0x29, r25	; 41
  b8:	88 bd       	out	0x28, r24	; 40
	TCNT1 = 0;
  ba:	1d bc       	out	0x2d, r1	; 45
  bc:	1c bc       	out	0x2c, r1	; 44

}
  be:	08 95       	ret

000000c0 <ledOFF>:
}



void ledOFF(){
	PORTB = 0x00;
  c0:	18 ba       	out	0x18, r1	; 24
}
  c2:	08 95       	ret

000000c4 <ReadADC>:

uint16_t ReadADC(){
	//Start a single conversion
	ADCSRA |= (1 << ADSC);
  c4:	36 9a       	sbi	0x06, 6	; 6
	//Wait for conversion to complete
	while(!(ADCSRA & (1<<ADIF)));
  c6:	34 9b       	sbis	0x06, 4	; 6
  c8:	fe cf       	rjmp	.-4      	; 0xc6 <ReadADC+0x2>
	//clear data (conversion is complete)
	ADCSRA |= (1 << ADIF);
  ca:	34 9a       	sbi	0x06, 4	; 6
	return(ADC);
  cc:	24 b1       	in	r18, 0x04	; 4
  ce:	35 b1       	in	r19, 0x05	; 5
}
  d0:	c9 01       	movw	r24, r18
  d2:	08 95       	ret

000000d4 <analogLEDTest>:

void analogLEDTest(){
		adc_value = ReadADC();
  d4:	0e 94 62 00 	call	0xc4	; 0xc4 <ReadADC>
  d8:	9c 01       	movw	r18, r24
  da:	90 93 6f 00 	sts	0x006F, r25
  de:	80 93 6e 00 	sts	0x006E, r24
		if (adc_value > 30){
  e2:	8f 31       	cpi	r24, 0x1F	; 31
  e4:	91 05       	cpc	r25, r1
  e6:	28 f1       	brcs	.+74     	; 0x132 <analogLEDTest+0x5e>
			PORTB = (1 << PORTB0);
  e8:	81 e0       	ldi	r24, 0x01	; 1
  ea:	88 bb       	out	0x18, r24	; 24
		}
		if (adc_value > 60){
  ec:	2d 33       	cpi	r18, 0x3D	; 61
  ee:	31 05       	cpc	r19, r1
  f0:	00 f1       	brcs	.+64     	; 0x132 <analogLEDTest+0x5e>
			PORTB = (1 << PORTB1);
  f2:	82 e0       	ldi	r24, 0x02	; 2
  f4:	88 bb       	out	0x18, r24	; 24
		}
		if (adc_value > 90){
  f6:	2b 35       	cpi	r18, 0x5B	; 91
  f8:	31 05       	cpc	r19, r1
  fa:	d8 f0       	brcs	.+54     	; 0x132 <analogLEDTest+0x5e>
			PORTB = (1 << PORTB2);
  fc:	84 e0       	ldi	r24, 0x04	; 4
  fe:	88 bb       	out	0x18, r24	; 24
		}
		if (adc_value > 120){
 100:	29 37       	cpi	r18, 0x79	; 121
 102:	31 05       	cpc	r19, r1
 104:	b0 f0       	brcs	.+44     	; 0x132 <analogLEDTest+0x5e>
			PORTB = (1 << PORTB3);
 106:	88 e0       	ldi	r24, 0x08	; 8
 108:	88 bb       	out	0x18, r24	; 24
		}
		if (adc_value > 150){
 10a:	27 39       	cpi	r18, 0x97	; 151
 10c:	31 05       	cpc	r19, r1
 10e:	88 f0       	brcs	.+34     	; 0x132 <analogLEDTest+0x5e>
			PORTB = (1 << PORTB4);
 110:	80 e1       	ldi	r24, 0x10	; 16
 112:	88 bb       	out	0x18, r24	; 24
		}
		if (adc_value > 180){
 114:	25 3b       	cpi	r18, 0xB5	; 181
 116:	31 05       	cpc	r19, r1
 118:	60 f0       	brcs	.+24     	; 0x132 <analogLEDTest+0x5e>
			PORTB = (1 << PORTB5);
 11a:	80 e2       	ldi	r24, 0x20	; 32
 11c:	88 bb       	out	0x18, r24	; 24
		}
		if (adc_value > 210){
 11e:	23 3d       	cpi	r18, 0xD3	; 211
 120:	31 05       	cpc	r19, r1
 122:	38 f0       	brcs	.+14     	; 0x132 <analogLEDTest+0x5e>
			PORTB = (1 << PORTB6);
 124:	80 e4       	ldi	r24, 0x40	; 64
 126:	88 bb       	out	0x18, r24	; 24
		}
		if (adc_value > 240){
 128:	21 3f       	cpi	r18, 0xF1	; 241
 12a:	31 05       	cpc	r19, r1
 12c:	10 f0       	brcs	.+4      	; 0x132 <analogLEDTest+0x5e>
			PORTB = (1 << PORTB7);
 12e:	80 e8       	ldi	r24, 0x80	; 128
 130:	88 bb       	out	0x18, r24	; 24
		}
		if (adc_value >= 240){
 132:	20 3f       	cpi	r18, 0xF0	; 240
 134:	31 05       	cpc	r19, r1
 136:	10 f0       	brcs	.+4      	; 0x13c <analogLEDTest+0x68>
			PORTB = 0xFF;
 138:	8f ef       	ldi	r24, 0xFF	; 255
 13a:	88 bb       	out	0x18, r24	; 24
 13c:	08 95       	ret

0000013e <midi_Transmit>:
		}
	}

void midi_Transmit( unsigned char data){
	/* Wait for empty transmit buffer */
	while(!(UCSRA & (1 << UDRE)) ) ;
 13e:	5d 9b       	sbis	0x0b, 5	; 11
 140:	fe cf       	rjmp	.-4      	; 0x13e <midi_Transmit>

	/* Put data into buffer, sends the data */
	UDR = data;
 142:	8c b9       	out	0x0c, r24	; 12
}
 144:	08 95       	ret

00000146 <midiTransitTest>:
	eeprom_address= 0x00;
	
}

void midiTransitTest(){
	midi_Transmit(144);
 146:	80 e9       	ldi	r24, 0x90	; 144
 148:	90 e0       	ldi	r25, 0x00	; 0
 14a:	0e 94 9f 00 	call	0x13e	; 0x13e <midi_Transmit>
	midi_Transmit(67);
 14e:	83 e4       	ldi	r24, 0x43	; 67
 150:	90 e0       	ldi	r25, 0x00	; 0
 152:	0e 94 9f 00 	call	0x13e	; 0x13e <midi_Transmit>
	midi_Transmit(100);
 156:	84 e6       	ldi	r24, 0x64	; 100
 158:	90 e0       	ldi	r25, 0x00	; 0
 15a:	0e 94 9f 00 	call	0x13e	; 0x13e <midi_Transmit>
 15e:	88 e8       	ldi	r24, 0x88	; 136
 160:	93 e1       	ldi	r25, 0x13	; 19
    milliseconds can be achieved.
 */
void
_delay_loop_2(uint16_t __count)
{
	__asm__ volatile (
 162:	24 e6       	ldi	r18, 0x64	; 100
 164:	30 e0       	ldi	r19, 0x00	; 0
 166:	f9 01       	movw	r30, r18
 168:	31 97       	sbiw	r30, 0x01	; 1
 16a:	f1 f7       	brne	.-4      	; 0x168 <midiTransitTest+0x22>
		__ticks = (uint16_t) (__ms * 10.0);
		while(__ticks)
		{
			// wait 1/10 ms
			_delay_loop_2(((F_CPU) / 4e3) / 10);
			__ticks --;
 16c:	01 97       	sbiw	r24, 0x01	; 1
		__ticks = 1;
	else if (__tmp > 65535)
	{
		//	__ticks = requested delay in 1/10 ms
		__ticks = (uint16_t) (__ms * 10.0);
		while(__ticks)
 16e:	d9 f7       	brne	.-10     	; 0x166 <midiTransitTest+0x20>
	_delay_ms(500);
	midi_Transmit(128);
 170:	80 e8       	ldi	r24, 0x80	; 128
 172:	90 e0       	ldi	r25, 0x00	; 0
 174:	0e 94 9f 00 	call	0x13e	; 0x13e <midi_Transmit>
	midi_Transmit(67);
 178:	83 e4       	ldi	r24, 0x43	; 67
 17a:	90 e0       	ldi	r25, 0x00	; 0
 17c:	0e 94 9f 00 	call	0x13e	; 0x13e <midi_Transmit>
	midi_Transmit(100);
 180:	84 e6       	ldi	r24, 0x64	; 100
 182:	90 e0       	ldi	r25, 0x00	; 0
 184:	0e 94 9f 00 	call	0x13e	; 0x13e <midi_Transmit>
 188:	88 e8       	ldi	r24, 0x88	; 136
 18a:	93 e1       	ldi	r25, 0x13	; 19
 18c:	24 e6       	ldi	r18, 0x64	; 100
 18e:	30 e0       	ldi	r19, 0x00	; 0
 190:	f9 01       	movw	r30, r18
 192:	31 97       	sbiw	r30, 0x01	; 1
 194:	f1 f7       	brne	.-4      	; 0x192 <midiTransitTest+0x4c>
		{
			// wait 1/10 ms
			_delay_loop_2(((F_CPU) / 4e3) / 10);
			__ticks --;
 196:	01 97       	sbiw	r24, 0x01	; 1
		__ticks = 1;
	else if (__tmp > 65535)
	{
		//	__ticks = requested delay in 1/10 ms
		__ticks = (uint16_t) (__ms * 10.0);
		while(__ticks)
 198:	d9 f7       	brne	.-10     	; 0x190 <midiTransitTest+0x4a>
	_delay_ms(500);

	midi_Transmit(144);
 19a:	80 e9       	ldi	r24, 0x90	; 144
 19c:	90 e0       	ldi	r25, 0x00	; 0
 19e:	0e 94 9f 00 	call	0x13e	; 0x13e <midi_Transmit>
	midi_Transmit(98);
 1a2:	82 e6       	ldi	r24, 0x62	; 98
 1a4:	90 e0       	ldi	r25, 0x00	; 0
 1a6:	0e 94 9f 00 	call	0x13e	; 0x13e <midi_Transmit>
	midi_Transmit(100);
 1aa:	84 e6       	ldi	r24, 0x64	; 100
 1ac:	90 e0       	ldi	r25, 0x00	; 0
 1ae:	0e 94 9f 00 	call	0x13e	; 0x13e <midi_Transmit>
 1b2:	88 e8       	ldi	r24, 0x88	; 136
 1b4:	93 e1       	ldi	r25, 0x13	; 19
 1b6:	24 e6       	ldi	r18, 0x64	; 100
 1b8:	30 e0       	ldi	r19, 0x00	; 0
 1ba:	f9 01       	movw	r30, r18
 1bc:	31 97       	sbiw	r30, 0x01	; 1
 1be:	f1 f7       	brne	.-4      	; 0x1bc <midiTransitTest+0x76>
		{
			// wait 1/10 ms
			_delay_loop_2(((F_CPU) / 4e3) / 10);
			__ticks --;
 1c0:	01 97       	sbiw	r24, 0x01	; 1
		__ticks = 1;
	else if (__tmp > 65535)
	{
		//	__ticks = requested delay in 1/10 ms
		__ticks = (uint16_t) (__ms * 10.0);
		while(__ticks)
 1c2:	d9 f7       	brne	.-10     	; 0x1ba <midiTransitTest+0x74>
	_delay_ms(500);
	midi_Transmit(128);
 1c4:	80 e8       	ldi	r24, 0x80	; 128
 1c6:	90 e0       	ldi	r25, 0x00	; 0
 1c8:	0e 94 9f 00 	call	0x13e	; 0x13e <midi_Transmit>
	midi_Transmit(98);
 1cc:	82 e6       	ldi	r24, 0x62	; 98
 1ce:	90 e0       	ldi	r25, 0x00	; 0
 1d0:	0e 94 9f 00 	call	0x13e	; 0x13e <midi_Transmit>
	midi_Transmit(100);
 1d4:	84 e6       	ldi	r24, 0x64	; 100
 1d6:	90 e0       	ldi	r25, 0x00	; 0
 1d8:	0e 94 9f 00 	call	0x13e	; 0x13e <midi_Transmit>
 1dc:	88 e8       	ldi	r24, 0x88	; 136
 1de:	93 e1       	ldi	r25, 0x13	; 19
 1e0:	24 e6       	ldi	r18, 0x64	; 100
 1e2:	30 e0       	ldi	r19, 0x00	; 0
 1e4:	f9 01       	movw	r30, r18
 1e6:	31 97       	sbiw	r30, 0x01	; 1
 1e8:	f1 f7       	brne	.-4      	; 0x1e6 <midiTransitTest+0xa0>
		{
			// wait 1/10 ms
			_delay_loop_2(((F_CPU) / 4e3) / 10);
			__ticks --;
 1ea:	01 97       	sbiw	r24, 0x01	; 1
		__ticks = 1;
	else if (__tmp > 65535)
	{
		//	__ticks = requested delay in 1/10 ms
		__ticks = (uint16_t) (__ms * 10.0);
		while(__ticks)
 1ec:	d9 f7       	brne	.-10     	; 0x1e4 <midiTransitTest+0x9e>
	_delay_ms(500);
	

	midi_Transmit(144);
 1ee:	80 e9       	ldi	r24, 0x90	; 144
 1f0:	90 e0       	ldi	r25, 0x00	; 0
 1f2:	0e 94 9f 00 	call	0x13e	; 0x13e <midi_Transmit>
	midi_Transmit(60);
 1f6:	8c e3       	ldi	r24, 0x3C	; 60
 1f8:	90 e0       	ldi	r25, 0x00	; 0
 1fa:	0e 94 9f 00 	call	0x13e	; 0x13e <midi_Transmit>
	midi_Transmit(100);
 1fe:	84 e6       	ldi	r24, 0x64	; 100
 200:	90 e0       	ldi	r25, 0x00	; 0
 202:	0e 94 9f 00 	call	0x13e	; 0x13e <midi_Transmit>
 206:	88 e8       	ldi	r24, 0x88	; 136
 208:	93 e1       	ldi	r25, 0x13	; 19
 20a:	24 e6       	ldi	r18, 0x64	; 100
 20c:	30 e0       	ldi	r19, 0x00	; 0
 20e:	f9 01       	movw	r30, r18
 210:	31 97       	sbiw	r30, 0x01	; 1
 212:	f1 f7       	brne	.-4      	; 0x210 <midiTransitTest+0xca>
		{
			// wait 1/10 ms
			_delay_loop_2(((F_CPU) / 4e3) / 10);
			__ticks --;
 214:	01 97       	sbiw	r24, 0x01	; 1
		__ticks = 1;
	else if (__tmp > 65535)
	{
		//	__ticks = requested delay in 1/10 ms
		__ticks = (uint16_t) (__ms * 10.0);
		while(__ticks)
 216:	d9 f7       	brne	.-10     	; 0x20e <midiTransitTest+0xc8>
	_delay_ms(500);
	midi_Transmit(128);
 218:	80 e8       	ldi	r24, 0x80	; 128
 21a:	90 e0       	ldi	r25, 0x00	; 0
 21c:	0e 94 9f 00 	call	0x13e	; 0x13e <midi_Transmit>
	midi_Transmit(60);
 220:	8c e3       	ldi	r24, 0x3C	; 60
 222:	90 e0       	ldi	r25, 0x00	; 0
 224:	0e 94 9f 00 	call	0x13e	; 0x13e <midi_Transmit>
	midi_Transmit(100);
 228:	84 e6       	ldi	r24, 0x64	; 100
 22a:	90 e0       	ldi	r25, 0x00	; 0
 22c:	0e 94 9f 00 	call	0x13e	; 0x13e <midi_Transmit>
 230:	88 e8       	ldi	r24, 0x88	; 136
 232:	93 e1       	ldi	r25, 0x13	; 19
 234:	24 e6       	ldi	r18, 0x64	; 100
 236:	30 e0       	ldi	r19, 0x00	; 0
 238:	f9 01       	movw	r30, r18
 23a:	31 97       	sbiw	r30, 0x01	; 1
 23c:	f1 f7       	brne	.-4      	; 0x23a <midiTransitTest+0xf4>
		{
			// wait 1/10 ms
			_delay_loop_2(((F_CPU) / 4e3) / 10);
			__ticks --;
 23e:	01 97       	sbiw	r24, 0x01	; 1
		__ticks = 1;
	else if (__tmp > 65535)
	{
		//	__ticks = requested delay in 1/10 ms
		__ticks = (uint16_t) (__ms * 10.0);
		while(__ticks)
 240:	d9 f7       	brne	.-10     	; 0x238 <midiTransitTest+0xf2>
	_delay_ms(500);

}
 242:	08 95       	ret

00000244 <playSong>:
	}	
	stop_addr = eeprom_address;
}

void playSong(){
	eeprom_address= 0x00;
 244:	10 92 6b 00 	sts	0x006B, r1
 248:	10 92 6a 00 	sts	0x006A, r1
 24c:	19 c0       	rjmp	.+50     	; 0x280 <playSong+0x3c>
	//SREG = cSREG;
}

unsigned char EEPROM_read(unsigned int uiAddress){
	/* wait for completion of previous write */
	while(EECR & (1<< EEWE));
 24e:	e1 99       	sbic	0x1c, 1	; 28
 250:	fe cf       	rjmp	.-4      	; 0x24e <playSong+0xa>
	/* Set up address register */
	EEAR = uiAddress;
 252:	3f bb       	out	0x1f, r19	; 31
 254:	2e bb       	out	0x1e, r18	; 30
	//char cSREG;
	//cSREG = SREG;
	//cli();
	/* Start eeprom read by writing EERE */
	EECR |= (1<< EERE);
 256:	e0 9a       	sbi	0x1c, 0	; 28
	/* Return data from data register */
	//SREG = cSREG;
	return EEDR;
 258:	8d b3       	in	r24, 0x1d	; 29
}

void playSong(){
	eeprom_address= 0x00;
	while(eeprom_address < stop_addr){
		PORTB = EEPROM_read(eeprom_address);
 25a:	88 bb       	out	0x18, r24	; 24
	//SREG = cSREG;
}

unsigned char EEPROM_read(unsigned int uiAddress){
	/* wait for completion of previous write */
	while(EECR & (1<< EEWE));
 25c:	e1 99       	sbic	0x1c, 1	; 28
 25e:	fe cf       	rjmp	.-4      	; 0x25c <playSong+0x18>
	/* Set up address register */
	EEAR = uiAddress;
 260:	3f bb       	out	0x1f, r19	; 31
 262:	2e bb       	out	0x1e, r18	; 30
	//char cSREG;
	//cSREG = SREG;
	//cli();
	/* Start eeprom read by writing EERE */
	EECR |= (1<< EERE);
 264:	e0 9a       	sbi	0x1c, 0	; 28
	/* Return data from data register */
	//SREG = cSREG;
	return EEDR;
 266:	8d b3       	in	r24, 0x1d	; 29

void playSong(){
	eeprom_address= 0x00;
	while(eeprom_address < stop_addr){
		PORTB = EEPROM_read(eeprom_address);
		midi_Transmit(EEPROM_read(eeprom_address));
 268:	90 e0       	ldi	r25, 0x00	; 0
 26a:	0e 94 9f 00 	call	0x13e	; 0x13e <midi_Transmit>
		eeprom_address++;
 26e:	80 91 6a 00 	lds	r24, 0x006A
 272:	90 91 6b 00 	lds	r25, 0x006B
 276:	01 96       	adiw	r24, 0x01	; 1
 278:	90 93 6b 00 	sts	0x006B, r25
 27c:	80 93 6a 00 	sts	0x006A, r24
	stop_addr = eeprom_address;
}

void playSong(){
	eeprom_address= 0x00;
	while(eeprom_address < stop_addr){
 280:	20 91 6a 00 	lds	r18, 0x006A
 284:	30 91 6b 00 	lds	r19, 0x006B
 288:	80 91 6c 00 	lds	r24, 0x006C
 28c:	90 91 6d 00 	lds	r25, 0x006D
 290:	28 17       	cp	r18, r24
 292:	39 07       	cpc	r19, r25
 294:	e0 f2       	brcs	.-72     	; 0x24e <playSong+0xa>
		PORTB = EEPROM_read(eeprom_address);
		midi_Transmit(EEPROM_read(eeprom_address));
		eeprom_address++;
	}
	eeprom_address= 0x00;
 296:	10 92 6b 00 	sts	0x006B, r1
 29a:	10 92 6a 00 	sts	0x006A, r1
	
}
 29e:	08 95       	ret

000002a0 <playBack>:
}

void playBack(){
	//midiTransitTest();
	//eeprom_test();
	playSong();
 2a0:	0e 94 22 01 	call	0x244	; 0x244 <playSong>
}
 2a4:	08 95       	ret

000002a6 <midi_Receive>:
	UDR = data;
}

unsigned char midi_Receive(void){
	/* Wait for data to be recieved */
	while(!(UCSRA & (1<<RXC)));
 2a6:	5f 9b       	sbis	0x0b, 7	; 11
 2a8:	fe cf       	rjmp	.-4      	; 0x2a6 <midi_Receive>

	/* get and return data from buffer */
	return UDR;
 2aa:	8c b1       	in	r24, 0x0c	; 12
}
 2ac:	08 95       	ret

000002ae <midi_Flush>:

/* flushs the buffer of the midi */
void midi_Flush(void){ 
 2ae:	01 c0       	rjmp	.+2      	; 0x2b2 <midi_Flush+0x4>
	unsigned char dummy;
	while (UCSRA & (1 << RXC) ) dummy = UDR;
 2b0:	8c b1       	in	r24, 0x0c	; 12
 2b2:	5f 99       	sbic	0x0b, 7	; 11
 2b4:	fd cf       	rjmp	.-6      	; 0x2b0 <midi_Flush+0x2>
}
 2b6:	08 95       	ret

000002b8 <midi_ReadUCSRC>:

unsigned char midi_ReadUCSRC(void){
	unsigned char ucsrc;
	/* read UCSRC */
	//note may need cli() to disable interrupts
	ucsrc = UBRRH;
 2b8:	80 b5       	in	r24, 0x20	; 32
	ucsrc = UCSRC;
 2ba:	80 b5       	in	r24, 0x20	; 32
	return ucsrc;
}
 2bc:	08 95       	ret

000002be <TIM16_ReadTCNT1>:

unsigned char TIM16_ReadTCNT1(void){
	unsigned char sreg;
	unsigned char i;
	/* save gloval interrupt flag */
	sreg = SREG;
 2be:	2f b7       	in	r18, 0x3f	; 63
	/* disable interrupts */
	cli();
 2c0:	f8 94       	cli
	/* read TCNT1 into i */
	i = TCNT1;
 2c2:	8c b5       	in	r24, 0x2c	; 44
 2c4:	9d b5       	in	r25, 0x2d	; 45
	/* restore global interrupt flag */
	SREG = sreg;
 2c6:	2f bf       	out	0x3f, r18	; 63
	return i;
}
 2c8:	08 95       	ret

000002ca <TIM16_WriteTCNT1>:

void TIM16_WriteTCNT1 (unsigned int i){
	unsigned char sreg;
	/* save global interrupt flag */
	sreg = SREG;
 2ca:	2f b7       	in	r18, 0x3f	; 63
	/* disable interrupts */
	cli();
 2cc:	f8 94       	cli
	/* set tcnt1 to i */
	TCNT1 = i;
 2ce:	9d bd       	out	0x2d, r25	; 45
 2d0:	8c bd       	out	0x2c, r24	; 44
	/* restore global interrupt flag */
	SREG = sreg;
 2d2:	2f bf       	out	0x3f, r18	; 63
}
 2d4:	08 95       	ret

000002d6 <EEPROM_write>:

void EEPROM_write(unsigned int uiAddress, unsigned char ucData){
	/* wait for completion of previous write */
	while (EECR & (1 <<EEWE));
 2d6:	e1 99       	sbic	0x1c, 1	; 28
 2d8:	fe cf       	rjmp	.-4      	; 0x2d6 <EEPROM_write>

	
	/* Set up address and data registers */
	EEAR = uiAddress;
 2da:	9f bb       	out	0x1f, r25	; 31
 2dc:	8e bb       	out	0x1e, r24	; 30
	EEDR = ucData;
 2de:	6d bb       	out	0x1d, r22	; 29
	//char cSREG;
	//cSREG = SREG;
	//cli();

	/* Write logical one to EEMWE */
	EECR |= (1 << EEMWE);
 2e0:	e2 9a       	sbi	0x1c, 2	; 28
	/* Start eeporm write by setting EEWE */
	EECR |= (1 << EEWE);
 2e2:	e1 9a       	sbi	0x1c, 1	; 28
	//SREG = cSREG;
}
 2e4:	08 95       	ret

000002e6 <writeSong2>:
	PORTB = EEPROM_read(9);
	_delay_ms(500);
}


void writeSong2(){
 2e6:	cf 93       	push	r28
 2e8:	df 93       	push	r29
 2ea:	c0 e7       	ldi	r28, 0x70	; 112
 2ec:	d0 e0       	ldi	r29, 0x00	; 0
 2ee:	fe 01       	movw	r30, r28
	UDR = data;
}

unsigned char midi_Receive(void){
	/* Wait for data to be recieved */
	while(!(UCSRA & (1<<RXC)));
 2f0:	5f 9b       	sbis	0x0b, 7	; 11
 2f2:	fe cf       	rjmp	.-4      	; 0x2f0 <writeSong2+0xa>

	/* get and return data from buffer */
	return UDR;
 2f4:	8c b1       	in	r24, 0x0c	; 12

void writeSong2(){
	unsigned char captureTime;
	unsigned char interval;
	for(int i =0; i <3; i++){
		midiData[i] = midi_Receive();
 2f6:	81 93       	st	Z+, r24


void writeSong2(){
	unsigned char captureTime;
	unsigned char interval;
	for(int i =0; i <3; i++){
 2f8:	20 e0       	ldi	r18, 0x00	; 0
 2fa:	e3 37       	cpi	r30, 0x73	; 115
 2fc:	f2 07       	cpc	r31, r18
 2fe:	c1 f7       	brne	.-16     	; 0x2f0 <writeSong2+0xa>
		midiData[i] = midi_Receive();
	}
	PORTB = midiData[1];
 300:	80 91 71 00 	lds	r24, 0x0071
 304:	88 bb       	out	0x18, r24	; 24
	TCNT1 = 0;
 306:	1d bc       	out	0x2d, r1	; 45
 308:	1c bc       	out	0x2c, r1	; 44
	captureTime = TCNT1;
 30a:	2c b5       	in	r18, 0x2c	; 44
 30c:	3d b5       	in	r19, 0x2d	; 45
 30e:	42 2f       	mov	r20, r18
	unsigned char captureTimeA = ((captureTime << 8)>>8);
	unsigned char captureTimeB = (captureTime >> 8);
	midiData[3] = captureTimeA;
 310:	92 2f       	mov	r25, r18
 312:	80 e0       	ldi	r24, 0x00	; 0
 314:	89 2f       	mov	r24, r25
 316:	99 0f       	add	r25, r25
 318:	99 0b       	sbc	r25, r25
 31a:	80 83       	st	Z, r24
	midiData[4] = captureTimeB;
 31c:	11 82       	std	Z+1, r1	; 0x01
 31e:	32 96       	adiw	r30, 0x02	; 2
	UDR = data;
}

unsigned char midi_Receive(void){
	/* Wait for data to be recieved */
	while(!(UCSRA & (1<<RXC)));
 320:	5f 9b       	sbis	0x0b, 7	; 11
 322:	fe cf       	rjmp	.-4      	; 0x320 <writeSong2+0x3a>

	/* get and return data from buffer */
	return UDR;
 324:	8c b1       	in	r24, 0x0c	; 12
	unsigned char captureTimeB = (captureTime >> 8);
	midiData[3] = captureTimeA;
	midiData[4] = captureTimeB;
	
	for(int j=5; j < 8; j++){
		midiData[j] = midi_Receive();
 326:	81 93       	st	Z+, r24
	unsigned char captureTimeA = ((captureTime << 8)>>8);
	unsigned char captureTimeB = (captureTime >> 8);
	midiData[3] = captureTimeA;
	midiData[4] = captureTimeB;
	
	for(int j=5; j < 8; j++){
 328:	80 e0       	ldi	r24, 0x00	; 0
 32a:	e8 37       	cpi	r30, 0x78	; 120
 32c:	f8 07       	cpc	r31, r24
 32e:	c1 f7       	brne	.-16     	; 0x320 <writeSong2+0x3a>
		midiData[j] = midi_Receive();
	}
	interval = TCNT1 - captureTime;
 330:	2c b5       	in	r18, 0x2c	; 44
 332:	3d b5       	in	r19, 0x2d	; 45
	unsigned char intervalA = ((interval << 8) >> 8);
	unsigned char intervalB = (interval >> 8);
	midiData[8] = intervalA;
 334:	92 2f       	mov	r25, r18
 336:	94 1b       	sub	r25, r20
 338:	80 e0       	ldi	r24, 0x00	; 0
 33a:	89 2f       	mov	r24, r25
 33c:	99 0f       	add	r25, r25
 33e:	99 0b       	sbc	r25, r25
 340:	80 83       	st	Z, r24
	midiData[9] = intervalB;
 342:	11 82       	std	Z+1, r1	; 0x01

	
	

	for(int j= 0; j < 10; j++) {
		EEPROM_write(eeprom_address, midiData[j]);
 344:	80 91 6a 00 	lds	r24, 0x006A
 348:	90 91 6b 00 	lds	r25, 0x006B
 34c:	69 91       	ld	r22, Y+
 34e:	0e 94 6b 01 	call	0x2d6	; 0x2d6 <EEPROM_write>
		eeprom_address++;		
 352:	80 91 6a 00 	lds	r24, 0x006A
 356:	90 91 6b 00 	lds	r25, 0x006B
 35a:	01 96       	adiw	r24, 0x01	; 1
 35c:	90 93 6b 00 	sts	0x006B, r25
 360:	80 93 6a 00 	sts	0x006A, r24
	midiData[9] = intervalB;

	
	

	for(int j= 0; j < 10; j++) {
 364:	20 e0       	ldi	r18, 0x00	; 0
 366:	ca 37       	cpi	r28, 0x7A	; 122
 368:	d2 07       	cpc	r29, r18
 36a:	61 f7       	brne	.-40     	; 0x344 <writeSong2+0x5e>
		EEPROM_write(eeprom_address, midiData[j]);
		eeprom_address++;		
	}	
	stop_addr = eeprom_address;
 36c:	90 93 6d 00 	sts	0x006D, r25
 370:	80 93 6c 00 	sts	0x006C, r24
}
 374:	df 91       	pop	r29
 376:	cf 91       	pop	r28
 378:	08 95       	ret

0000037a <record>:
    }
}
/***** Main Methods *****/

void record(){
	 writeSong2();
 37a:	0e 94 73 01 	call	0x2e6	; 0x2e6 <writeSong2>
	//midiTransitTest();
}
 37e:	08 95       	ret

00000380 <main>:
void playSong();
void playSong2();


/***** Main Loop *****/
int main(void){
 380:	1f 93       	push	r17
	UBRRL = (unsigned char) baudrate;
	UCSRB = (1 << TXEN) | (1 << RXEN);
	UCSRC = (1 << URSEL )|(0 << USBS) | (3 << UCSZ0); //only use 8 bit words
}
void setupPins(){
	DDRB = 0xFF;  //Set outp1ts
 382:	8f ef       	ldi	r24, 0xFF	; 255
 384:	87 bb       	out	0x17, r24	; 23
	DDRA = 0x00;  //Set inputs
 386:	1a ba       	out	0x1a, r1	; 26
	PORTB = 0x00; //Turns all leds off
 388:	18 ba       	out	0x18, r1	; 24
	PORTA = 0x07; // sets inputs to return 5v on PA0, PA1, PA2
 38a:	17 e0       	ldi	r17, 0x07	; 7
 38c:	1b bb       	out	0x1b, r17	; 27
	DDRD = 0x00;
 38e:	11 ba       	out	0x11, r1	; 17


/***** Main Loop *****/
int main(void){
   setupPins();
   setupTimer();
 390:	0e 94 53 00 	call	0xa6	; 0xa6 <setupTimer>
	PORTB = 0x00; //Turns all leds off
	PORTA = 0x07; // sets inputs to return 5v on PA0, PA1, PA2
	DDRD = 0x00;
}
void setupAnalog(){
	ADMUX = (1 << REFS0) | (1<< MUX0) | (1<< MUX1) | (1<< MUX2); // sets the analog input of the photosensor to 0-5v, sets to look at the 7th analog pin.
 394:	87 e4       	ldi	r24, 0x47	; 71
 396:	87 b9       	out	0x07, r24	; 7
	ADCSRA =  (1 << ADEN) | (1<< ADPS2) | (1<< ADPS1) | (1<< ADPS0); // ADEN turns ADC on; ADPS sets prescaler to 128;
 398:	87 e8       	ldi	r24, 0x87	; 135
 39a:	86 b9       	out	0x06, r24	; 6


/***** Setup Methods *****/

void setupMIDI(unsigned int baudrate){
	UBRRH = (unsigned char) (baudrate >> 8);
 39c:	10 bc       	out	0x20, r1	; 32
	UBRRL = (unsigned char) baudrate;
 39e:	19 b9       	out	0x09, r17	; 9
	UCSRB = (1 << TXEN) | (1 << RXEN);
 3a0:	88 e1       	ldi	r24, 0x18	; 24
 3a2:	8a b9       	out	0x0a, r24	; 10
	UCSRC = (1 << URSEL )|(0 << USBS) | (3 << UCSZ0); //only use 8 bit words
 3a4:	86 e8       	ldi	r24, 0x86	; 134
 3a6:	80 bd       	out	0x20, r24	; 32
   setupTimer();
   setupAnalog();
   setupMIDI(BUAD_PRESCALE);

    while(1){
		uint8_t rec = PINA & 0x04;
 3a8:	89 b3       	in	r24, 0x19	; 25
		uint8_t play = PINA & 0x02;
 3aa:	99 b3       	in	r25, 0x19	; 25
 3ac:	92 70       	andi	r25, 0x02	; 2
		uint8_t mod = PINA & 0x01;
 3ae:	29 b3       	in	r18, 0x19	; 25
	
		if(rec && !play){
 3b0:	82 ff       	sbrs	r24, 2
 3b2:	05 c0       	rjmp	.+10     	; 0x3be <main+0x3e>
 3b4:	99 23       	and	r25, r25
 3b6:	c1 f7       	brne	.-16     	; 0x3a8 <main+0x28>
    }
}
/***** Main Methods *****/

void record(){
	 writeSong2();
 3b8:	0e 94 73 01 	call	0x2e6	; 0x2e6 <writeSong2>
 3bc:	f5 cf       	rjmp	.-22     	; 0x3a8 <main+0x28>
		uint8_t mod = PINA & 0x01;
	
		if(rec && !play){
			record();
		}
		if(play && !rec){
 3be:	99 23       	and	r25, r25
 3c0:	99 f3       	breq	.-26     	; 0x3a8 <main+0x28>
			if (mod){ // Modify Mode
 3c2:	20 fd       	sbrc	r18, 0
 3c4:	f1 cf       	rjmp	.-30     	; 0x3a8 <main+0x28>
}

void playBack(){
	//midiTransitTest();
	//eeprom_test();
	playSong();
 3c6:	0e 94 22 01 	call	0x244	; 0x244 <playSong>
 3ca:	ee cf       	rjmp	.-36     	; 0x3a8 <main+0x28>

000003cc <eeprom_test>:




void eeprom_test(){
	EEPROM_write(1, 1);
 3cc:	81 e0       	ldi	r24, 0x01	; 1
 3ce:	90 e0       	ldi	r25, 0x00	; 0
 3d0:	61 e0       	ldi	r22, 0x01	; 1
 3d2:	0e 94 6b 01 	call	0x2d6	; 0x2d6 <EEPROM_write>
	EEPROM_write(2, 2);
 3d6:	82 e0       	ldi	r24, 0x02	; 2
 3d8:	90 e0       	ldi	r25, 0x00	; 0
 3da:	62 e0       	ldi	r22, 0x02	; 2
 3dc:	0e 94 6b 01 	call	0x2d6	; 0x2d6 <EEPROM_write>
	EEPROM_write(3, 3);
 3e0:	83 e0       	ldi	r24, 0x03	; 3
 3e2:	90 e0       	ldi	r25, 0x00	; 0
 3e4:	63 e0       	ldi	r22, 0x03	; 3
 3e6:	0e 94 6b 01 	call	0x2d6	; 0x2d6 <EEPROM_write>
	EEPROM_write(4, 4);
 3ea:	84 e0       	ldi	r24, 0x04	; 4
 3ec:	90 e0       	ldi	r25, 0x00	; 0
 3ee:	64 e0       	ldi	r22, 0x04	; 4
 3f0:	0e 94 6b 01 	call	0x2d6	; 0x2d6 <EEPROM_write>
	EEPROM_write(5, 5);
 3f4:	85 e0       	ldi	r24, 0x05	; 5
 3f6:	90 e0       	ldi	r25, 0x00	; 0
 3f8:	65 e0       	ldi	r22, 0x05	; 5
 3fa:	0e 94 6b 01 	call	0x2d6	; 0x2d6 <EEPROM_write>
	EEPROM_write(6, 6);
 3fe:	86 e0       	ldi	r24, 0x06	; 6
 400:	90 e0       	ldi	r25, 0x00	; 0
 402:	66 e0       	ldi	r22, 0x06	; 6
 404:	0e 94 6b 01 	call	0x2d6	; 0x2d6 <EEPROM_write>
	EEPROM_write(7, 7);
 408:	87 e0       	ldi	r24, 0x07	; 7
 40a:	90 e0       	ldi	r25, 0x00	; 0
 40c:	67 e0       	ldi	r22, 0x07	; 7
 40e:	0e 94 6b 01 	call	0x2d6	; 0x2d6 <EEPROM_write>
	EEPROM_write(8, 8);
 412:	88 e0       	ldi	r24, 0x08	; 8
 414:	90 e0       	ldi	r25, 0x00	; 0
 416:	68 e0       	ldi	r22, 0x08	; 8
 418:	0e 94 6b 01 	call	0x2d6	; 0x2d6 <EEPROM_write>
	EEPROM_write(9, 9);
 41c:	89 e0       	ldi	r24, 0x09	; 9
 41e:	90 e0       	ldi	r25, 0x00	; 0
 420:	69 e0       	ldi	r22, 0x09	; 9
 422:	0e 94 6b 01 	call	0x2d6	; 0x2d6 <EEPROM_write>
	//SREG = cSREG;
}

unsigned char EEPROM_read(unsigned int uiAddress){
	/* wait for completion of previous write */
	while(EECR & (1<< EEWE));
 426:	e1 99       	sbic	0x1c, 1	; 28
 428:	fe cf       	rjmp	.-4      	; 0x426 <eeprom_test+0x5a>
	/* Set up address register */
	EEAR = uiAddress;
 42a:	81 e0       	ldi	r24, 0x01	; 1
 42c:	90 e0       	ldi	r25, 0x00	; 0
 42e:	9f bb       	out	0x1f, r25	; 31
 430:	8e bb       	out	0x1e, r24	; 30
	//char cSREG;
	//cSREG = SREG;
	//cli();
	/* Start eeprom read by writing EERE */
	EECR |= (1<< EERE);
 432:	e0 9a       	sbi	0x1c, 0	; 28
	/* Return data from data register */
	//SREG = cSREG;
	return EEDR;
 434:	8d b3       	in	r24, 0x1d	; 29
	EEPROM_write(5, 5);
	EEPROM_write(6, 6);
	EEPROM_write(7, 7);
	EEPROM_write(8, 8);
	EEPROM_write(9, 9);
	PORTB = EEPROM_read(1);
 436:	88 bb       	out	0x18, r24	; 24
 438:	88 e8       	ldi	r24, 0x88	; 136
 43a:	93 e1       	ldi	r25, 0x13	; 19
 43c:	24 e6       	ldi	r18, 0x64	; 100
 43e:	30 e0       	ldi	r19, 0x00	; 0
 440:	f9 01       	movw	r30, r18
 442:	31 97       	sbiw	r30, 0x01	; 1
 444:	f1 f7       	brne	.-4      	; 0x442 <eeprom_test+0x76>
		{
			// wait 1/10 ms
			_delay_loop_2(((F_CPU) / 4e3) / 10);
			__ticks --;
 446:	01 97       	sbiw	r24, 0x01	; 1
		__ticks = 1;
	else if (__tmp > 65535)
	{
		//	__ticks = requested delay in 1/10 ms
		__ticks = (uint16_t) (__ms * 10.0);
		while(__ticks)
 448:	d9 f7       	brne	.-10     	; 0x440 <eeprom_test+0x74>
	//SREG = cSREG;
}

unsigned char EEPROM_read(unsigned int uiAddress){
	/* wait for completion of previous write */
	while(EECR & (1<< EEWE));
 44a:	e1 99       	sbic	0x1c, 1	; 28
 44c:	fe cf       	rjmp	.-4      	; 0x44a <eeprom_test+0x7e>
	/* Set up address register */
	EEAR = uiAddress;
 44e:	82 e0       	ldi	r24, 0x02	; 2
 450:	90 e0       	ldi	r25, 0x00	; 0
 452:	9f bb       	out	0x1f, r25	; 31
 454:	8e bb       	out	0x1e, r24	; 30
	//char cSREG;
	//cSREG = SREG;
	//cli();
	/* Start eeprom read by writing EERE */
	EECR |= (1<< EERE);
 456:	e0 9a       	sbi	0x1c, 0	; 28
	/* Return data from data register */
	//SREG = cSREG;
	return EEDR;
 458:	8d b3       	in	r24, 0x1d	; 29
	EEPROM_write(7, 7);
	EEPROM_write(8, 8);
	EEPROM_write(9, 9);
	PORTB = EEPROM_read(1);
	_delay_ms(500);
	PORTB = EEPROM_read(2);
 45a:	88 bb       	out	0x18, r24	; 24
 45c:	88 e8       	ldi	r24, 0x88	; 136
 45e:	93 e1       	ldi	r25, 0x13	; 19
 460:	24 e6       	ldi	r18, 0x64	; 100
 462:	30 e0       	ldi	r19, 0x00	; 0
 464:	f9 01       	movw	r30, r18
 466:	31 97       	sbiw	r30, 0x01	; 1
 468:	f1 f7       	brne	.-4      	; 0x466 <eeprom_test+0x9a>
		{
			// wait 1/10 ms
			_delay_loop_2(((F_CPU) / 4e3) / 10);
			__ticks --;
 46a:	01 97       	sbiw	r24, 0x01	; 1
		__ticks = 1;
	else if (__tmp > 65535)
	{
		//	__ticks = requested delay in 1/10 ms
		__ticks = (uint16_t) (__ms * 10.0);
		while(__ticks)
 46c:	d9 f7       	brne	.-10     	; 0x464 <eeprom_test+0x98>
	//SREG = cSREG;
}

unsigned char EEPROM_read(unsigned int uiAddress){
	/* wait for completion of previous write */
	while(EECR & (1<< EEWE));
 46e:	e1 99       	sbic	0x1c, 1	; 28
 470:	fe cf       	rjmp	.-4      	; 0x46e <eeprom_test+0xa2>
	/* Set up address register */
	EEAR = uiAddress;
 472:	83 e0       	ldi	r24, 0x03	; 3
 474:	90 e0       	ldi	r25, 0x00	; 0
 476:	9f bb       	out	0x1f, r25	; 31
 478:	8e bb       	out	0x1e, r24	; 30
	//char cSREG;
	//cSREG = SREG;
	//cli();
	/* Start eeprom read by writing EERE */
	EECR |= (1<< EERE);
 47a:	e0 9a       	sbi	0x1c, 0	; 28
	/* Return data from data register */
	//SREG = cSREG;
	return EEDR;
 47c:	8d b3       	in	r24, 0x1d	; 29
	EEPROM_write(9, 9);
	PORTB = EEPROM_read(1);
	_delay_ms(500);
	PORTB = EEPROM_read(2);
	_delay_ms(500);
	PORTB = EEPROM_read(3);
 47e:	88 bb       	out	0x18, r24	; 24
 480:	88 e8       	ldi	r24, 0x88	; 136
 482:	93 e1       	ldi	r25, 0x13	; 19
 484:	24 e6       	ldi	r18, 0x64	; 100
 486:	30 e0       	ldi	r19, 0x00	; 0
 488:	f9 01       	movw	r30, r18
 48a:	31 97       	sbiw	r30, 0x01	; 1
 48c:	f1 f7       	brne	.-4      	; 0x48a <eeprom_test+0xbe>
		{
			// wait 1/10 ms
			_delay_loop_2(((F_CPU) / 4e3) / 10);
			__ticks --;
 48e:	01 97       	sbiw	r24, 0x01	; 1
		__ticks = 1;
	else if (__tmp > 65535)
	{
		//	__ticks = requested delay in 1/10 ms
		__ticks = (uint16_t) (__ms * 10.0);
		while(__ticks)
 490:	d9 f7       	brne	.-10     	; 0x488 <eeprom_test+0xbc>
	//SREG = cSREG;
}

unsigned char EEPROM_read(unsigned int uiAddress){
	/* wait for completion of previous write */
	while(EECR & (1<< EEWE));
 492:	e1 99       	sbic	0x1c, 1	; 28
 494:	fe cf       	rjmp	.-4      	; 0x492 <eeprom_test+0xc6>
	/* Set up address register */
	EEAR = uiAddress;
 496:	84 e0       	ldi	r24, 0x04	; 4
 498:	90 e0       	ldi	r25, 0x00	; 0
 49a:	9f bb       	out	0x1f, r25	; 31
 49c:	8e bb       	out	0x1e, r24	; 30
	//char cSREG;
	//cSREG = SREG;
	//cli();
	/* Start eeprom read by writing EERE */
	EECR |= (1<< EERE);
 49e:	e0 9a       	sbi	0x1c, 0	; 28
	/* Return data from data register */
	//SREG = cSREG;
	return EEDR;
 4a0:	8d b3       	in	r24, 0x1d	; 29
	_delay_ms(500);
	PORTB = EEPROM_read(2);
	_delay_ms(500);
	PORTB = EEPROM_read(3);
	_delay_ms(500);
	PORTB = EEPROM_read(4);
 4a2:	88 bb       	out	0x18, r24	; 24
 4a4:	88 e8       	ldi	r24, 0x88	; 136
 4a6:	93 e1       	ldi	r25, 0x13	; 19
 4a8:	24 e6       	ldi	r18, 0x64	; 100
 4aa:	30 e0       	ldi	r19, 0x00	; 0
 4ac:	f9 01       	movw	r30, r18
 4ae:	31 97       	sbiw	r30, 0x01	; 1
 4b0:	f1 f7       	brne	.-4      	; 0x4ae <eeprom_test+0xe2>
		{
			// wait 1/10 ms
			_delay_loop_2(((F_CPU) / 4e3) / 10);
			__ticks --;
 4b2:	01 97       	sbiw	r24, 0x01	; 1
		__ticks = 1;
	else if (__tmp > 65535)
	{
		//	__ticks = requested delay in 1/10 ms
		__ticks = (uint16_t) (__ms * 10.0);
		while(__ticks)
 4b4:	d9 f7       	brne	.-10     	; 0x4ac <eeprom_test+0xe0>
	//SREG = cSREG;
}

unsigned char EEPROM_read(unsigned int uiAddress){
	/* wait for completion of previous write */
	while(EECR & (1<< EEWE));
 4b6:	e1 99       	sbic	0x1c, 1	; 28
 4b8:	fe cf       	rjmp	.-4      	; 0x4b6 <eeprom_test+0xea>
	/* Set up address register */
	EEAR = uiAddress;
 4ba:	85 e0       	ldi	r24, 0x05	; 5
 4bc:	90 e0       	ldi	r25, 0x00	; 0
 4be:	9f bb       	out	0x1f, r25	; 31
 4c0:	8e bb       	out	0x1e, r24	; 30
	//char cSREG;
	//cSREG = SREG;
	//cli();
	/* Start eeprom read by writing EERE */
	EECR |= (1<< EERE);
 4c2:	e0 9a       	sbi	0x1c, 0	; 28
	/* Return data from data register */
	//SREG = cSREG;
	return EEDR;
 4c4:	8d b3       	in	r24, 0x1d	; 29
	_delay_ms(500);
	PORTB = EEPROM_read(3);
	_delay_ms(500);
	PORTB = EEPROM_read(4);
	_delay_ms(500);
	PORTB = EEPROM_read(5);
 4c6:	88 bb       	out	0x18, r24	; 24
 4c8:	88 e8       	ldi	r24, 0x88	; 136
 4ca:	93 e1       	ldi	r25, 0x13	; 19
 4cc:	24 e6       	ldi	r18, 0x64	; 100
 4ce:	30 e0       	ldi	r19, 0x00	; 0
 4d0:	f9 01       	movw	r30, r18
 4d2:	31 97       	sbiw	r30, 0x01	; 1
 4d4:	f1 f7       	brne	.-4      	; 0x4d2 <eeprom_test+0x106>
		{
			// wait 1/10 ms
			_delay_loop_2(((F_CPU) / 4e3) / 10);
			__ticks --;
 4d6:	01 97       	sbiw	r24, 0x01	; 1
		__ticks = 1;
	else if (__tmp > 65535)
	{
		//	__ticks = requested delay in 1/10 ms
		__ticks = (uint16_t) (__ms * 10.0);
		while(__ticks)
 4d8:	d9 f7       	brne	.-10     	; 0x4d0 <eeprom_test+0x104>
	//SREG = cSREG;
}

unsigned char EEPROM_read(unsigned int uiAddress){
	/* wait for completion of previous write */
	while(EECR & (1<< EEWE));
 4da:	e1 99       	sbic	0x1c, 1	; 28
 4dc:	fe cf       	rjmp	.-4      	; 0x4da <eeprom_test+0x10e>
	/* Set up address register */
	EEAR = uiAddress;
 4de:	86 e0       	ldi	r24, 0x06	; 6
 4e0:	90 e0       	ldi	r25, 0x00	; 0
 4e2:	9f bb       	out	0x1f, r25	; 31
 4e4:	8e bb       	out	0x1e, r24	; 30
	//char cSREG;
	//cSREG = SREG;
	//cli();
	/* Start eeprom read by writing EERE */
	EECR |= (1<< EERE);
 4e6:	e0 9a       	sbi	0x1c, 0	; 28
	/* Return data from data register */
	//SREG = cSREG;
	return EEDR;
 4e8:	8d b3       	in	r24, 0x1d	; 29
	_delay_ms(500);
	PORTB = EEPROM_read(4);
	_delay_ms(500);
	PORTB = EEPROM_read(5);
	_delay_ms(500);
	PORTB = EEPROM_read(6);
 4ea:	88 bb       	out	0x18, r24	; 24
 4ec:	88 e8       	ldi	r24, 0x88	; 136
 4ee:	93 e1       	ldi	r25, 0x13	; 19
 4f0:	24 e6       	ldi	r18, 0x64	; 100
 4f2:	30 e0       	ldi	r19, 0x00	; 0
 4f4:	f9 01       	movw	r30, r18
 4f6:	31 97       	sbiw	r30, 0x01	; 1
 4f8:	f1 f7       	brne	.-4      	; 0x4f6 <eeprom_test+0x12a>
		{
			// wait 1/10 ms
			_delay_loop_2(((F_CPU) / 4e3) / 10);
			__ticks --;
 4fa:	01 97       	sbiw	r24, 0x01	; 1
		__ticks = 1;
	else if (__tmp > 65535)
	{
		//	__ticks = requested delay in 1/10 ms
		__ticks = (uint16_t) (__ms * 10.0);
		while(__ticks)
 4fc:	d9 f7       	brne	.-10     	; 0x4f4 <eeprom_test+0x128>
	//SREG = cSREG;
}

unsigned char EEPROM_read(unsigned int uiAddress){
	/* wait for completion of previous write */
	while(EECR & (1<< EEWE));
 4fe:	e1 99       	sbic	0x1c, 1	; 28
 500:	fe cf       	rjmp	.-4      	; 0x4fe <eeprom_test+0x132>
	/* Set up address register */
	EEAR = uiAddress;
 502:	87 e0       	ldi	r24, 0x07	; 7
 504:	90 e0       	ldi	r25, 0x00	; 0
 506:	9f bb       	out	0x1f, r25	; 31
 508:	8e bb       	out	0x1e, r24	; 30
	//char cSREG;
	//cSREG = SREG;
	//cli();
	/* Start eeprom read by writing EERE */
	EECR |= (1<< EERE);
 50a:	e0 9a       	sbi	0x1c, 0	; 28
	/* Return data from data register */
	//SREG = cSREG;
	return EEDR;
 50c:	8d b3       	in	r24, 0x1d	; 29
	_delay_ms(500);
	PORTB = EEPROM_read(5);
	_delay_ms(500);
	PORTB = EEPROM_read(6);
	_delay_ms(500);
	PORTB = EEPROM_read(7);
 50e:	88 bb       	out	0x18, r24	; 24
 510:	88 e8       	ldi	r24, 0x88	; 136
 512:	93 e1       	ldi	r25, 0x13	; 19
 514:	24 e6       	ldi	r18, 0x64	; 100
 516:	30 e0       	ldi	r19, 0x00	; 0
 518:	f9 01       	movw	r30, r18
 51a:	31 97       	sbiw	r30, 0x01	; 1
 51c:	f1 f7       	brne	.-4      	; 0x51a <eeprom_test+0x14e>
		{
			// wait 1/10 ms
			_delay_loop_2(((F_CPU) / 4e3) / 10);
			__ticks --;
 51e:	01 97       	sbiw	r24, 0x01	; 1
		__ticks = 1;
	else if (__tmp > 65535)
	{
		//	__ticks = requested delay in 1/10 ms
		__ticks = (uint16_t) (__ms * 10.0);
		while(__ticks)
 520:	d9 f7       	brne	.-10     	; 0x518 <eeprom_test+0x14c>
	//SREG = cSREG;
}

unsigned char EEPROM_read(unsigned int uiAddress){
	/* wait for completion of previous write */
	while(EECR & (1<< EEWE));
 522:	e1 99       	sbic	0x1c, 1	; 28
 524:	fe cf       	rjmp	.-4      	; 0x522 <eeprom_test+0x156>
	/* Set up address register */
	EEAR = uiAddress;
 526:	88 e0       	ldi	r24, 0x08	; 8
 528:	90 e0       	ldi	r25, 0x00	; 0
 52a:	9f bb       	out	0x1f, r25	; 31
 52c:	8e bb       	out	0x1e, r24	; 30
	//char cSREG;
	//cSREG = SREG;
	//cli();
	/* Start eeprom read by writing EERE */
	EECR |= (1<< EERE);
 52e:	e0 9a       	sbi	0x1c, 0	; 28
	/* Return data from data register */
	//SREG = cSREG;
	return EEDR;
 530:	8d b3       	in	r24, 0x1d	; 29
	_delay_ms(500);
	PORTB = EEPROM_read(6);
	_delay_ms(500);
	PORTB = EEPROM_read(7);
	_delay_ms(500);
	PORTB = EEPROM_read(8);
 532:	88 bb       	out	0x18, r24	; 24
 534:	88 e8       	ldi	r24, 0x88	; 136
 536:	93 e1       	ldi	r25, 0x13	; 19
 538:	24 e6       	ldi	r18, 0x64	; 100
 53a:	30 e0       	ldi	r19, 0x00	; 0
 53c:	f9 01       	movw	r30, r18
 53e:	31 97       	sbiw	r30, 0x01	; 1
 540:	f1 f7       	brne	.-4      	; 0x53e <eeprom_test+0x172>
		{
			// wait 1/10 ms
			_delay_loop_2(((F_CPU) / 4e3) / 10);
			__ticks --;
 542:	01 97       	sbiw	r24, 0x01	; 1
		__ticks = 1;
	else if (__tmp > 65535)
	{
		//	__ticks = requested delay in 1/10 ms
		__ticks = (uint16_t) (__ms * 10.0);
		while(__ticks)
 544:	d9 f7       	brne	.-10     	; 0x53c <eeprom_test+0x170>
	//SREG = cSREG;
}

unsigned char EEPROM_read(unsigned int uiAddress){
	/* wait for completion of previous write */
	while(EECR & (1<< EEWE));
 546:	e1 99       	sbic	0x1c, 1	; 28
 548:	fe cf       	rjmp	.-4      	; 0x546 <eeprom_test+0x17a>
	/* Set up address register */
	EEAR = uiAddress;
 54a:	89 e0       	ldi	r24, 0x09	; 9
 54c:	90 e0       	ldi	r25, 0x00	; 0
 54e:	9f bb       	out	0x1f, r25	; 31
 550:	8e bb       	out	0x1e, r24	; 30
	//char cSREG;
	//cSREG = SREG;
	//cli();
	/* Start eeprom read by writing EERE */
	EECR |= (1<< EERE);
 552:	e0 9a       	sbi	0x1c, 0	; 28
	/* Return data from data register */
	//SREG = cSREG;
	return EEDR;
 554:	8d b3       	in	r24, 0x1d	; 29
	_delay_ms(500);
	PORTB = EEPROM_read(7);
	_delay_ms(500);
	PORTB = EEPROM_read(8);
	_delay_ms(500);
	PORTB = EEPROM_read(9);
 556:	88 bb       	out	0x18, r24	; 24
 558:	88 e8       	ldi	r24, 0x88	; 136
 55a:	93 e1       	ldi	r25, 0x13	; 19
 55c:	24 e6       	ldi	r18, 0x64	; 100
 55e:	30 e0       	ldi	r19, 0x00	; 0
 560:	f9 01       	movw	r30, r18
 562:	31 97       	sbiw	r30, 0x01	; 1
 564:	f1 f7       	brne	.-4      	; 0x562 <eeprom_test+0x196>
		{
			// wait 1/10 ms
			_delay_loop_2(((F_CPU) / 4e3) / 10);
			__ticks --;
 566:	01 97       	sbiw	r24, 0x01	; 1
		__ticks = 1;
	else if (__tmp > 65535)
	{
		//	__ticks = requested delay in 1/10 ms
		__ticks = (uint16_t) (__ms * 10.0);
		while(__ticks)
 568:	d9 f7       	brne	.-10     	; 0x560 <eeprom_test+0x194>
	_delay_ms(500);
}
 56a:	08 95       	ret

0000056c <EEPROM_read>:
	//SREG = cSREG;
}

unsigned char EEPROM_read(unsigned int uiAddress){
	/* wait for completion of previous write */
	while(EECR & (1<< EEWE));
 56c:	e1 99       	sbic	0x1c, 1	; 28
 56e:	fe cf       	rjmp	.-4      	; 0x56c <EEPROM_read>
	/* Set up address register */
	EEAR = uiAddress;
 570:	9f bb       	out	0x1f, r25	; 31
 572:	8e bb       	out	0x1e, r24	; 30
	//char cSREG;
	//cSREG = SREG;
	//cli();
	/* Start eeprom read by writing EERE */
	EECR |= (1<< EERE);
 574:	e0 9a       	sbi	0x1c, 0	; 28
	/* Return data from data register */
	//SREG = cSREG;
	return EEDR;
 576:	8d b3       	in	r24, 0x1d	; 29
}
 578:	08 95       	ret

0000057a <__vector_8>:

/***** Timer Interrupts *****/

ISR(TIMER1_COMPB_vect){
 57a:	1f 92       	push	r1
 57c:	0f 92       	push	r0
 57e:	0f b6       	in	r0, 0x3f	; 63
 580:	0f 92       	push	r0
 582:	11 24       	eor	r1, r1
	PORTB = 0x00; // blink
 584:	18 ba       	out	0x18, r1	; 24
	 //Reset timer
}
 586:	0f 90       	pop	r0
 588:	0f be       	out	0x3f, r0	; 63
 58a:	0f 90       	pop	r0
 58c:	1f 90       	pop	r1
 58e:	18 95       	reti

00000590 <_exit>:
 590:	f8 94       	cli

00000592 <__stop_program>:
 592:	ff cf       	rjmp	.-2      	; 0x592 <__stop_program>
